L251 LINKER/LOCATER V4.66.93.0                                                          05/20/2026  15:29:22  PAGE 1


L251 LINKER/LOCATER V4.66.93.0, INVOKED BY:
C:\KEIL_V5\C251\BIN\L251.EXE .\Objects\main.obj, .\Objects\USB_CDC_drive.obj, .\Objects\LED_drive.obj, .\Objects\KEY_dri
>> ve.obj, .\Objects\SYS_drive.obj, .\Objects\COMMON_drive.obj, .\Objects\DS135_Tur_drive.obj, .\Objects\STC32G_Delay.ob
>> j, .\Objects\STC32G_GPIO.obj, .\Library\stc_usb_cdc_32.LIB, .\Objects\STC32G_NVIC.obj, .\Objects\STC32G_ADC.obj TO .\
>> Objects\DS109Test1_Slave PRINT (.\Listings\DS109Test1_Slave.map) CASE REMOVEUNUSED CLASSES (EDATA (0X0-0XFFF), HDATA 
>> (0X0-0XFFF))


CPU MODE:     251 SOURCE MODE
INTR FRAME:   4 BYTES SAVED ON INTERRUPT
MEMORY MODEL: XSMALL WITH FLOATING POINT ARITHMETIC


INPUT MODULES INCLUDED:
  .\Objects\main.obj (main)
         COMMENT TYPE 0: C251 V5.60.0
  .\Objects\USB_CDC_drive.obj (USB_CDC_drive)
         COMMENT TYPE 0: C251 V5.60.0
  .\Objects\LED_drive.obj (LED_drive)
         COMMENT TYPE 0: C251 V5.60.0
  .\Objects\KEY_drive.obj (KEY_drive)
         COMMENT TYPE 0: C251 V5.60.0
  .\Objects\SYS_drive.obj (SYS_drive)
         COMMENT TYPE 0: C251 V5.60.0
  .\Objects\COMMON_drive.obj (COMMON_drive)
         COMMENT TYPE 0: C251 V5.60.0
  .\Objects\DS135_Tur_drive.obj (DS135_Tur_drive)
         COMMENT TYPE 0: C251 V5.60.0
  .\Objects\STC32G_Delay.obj (STC32G_Delay)
         COMMENT TYPE 0: C251 V5.60.0
  .\Objects\STC32G_GPIO.obj (STC32G_GPIO)
         COMMENT TYPE 0: C251 V5.60.0
  .\Library\stc_usb_cdc_32.LIB (usb)
         COMMENT TYPE 0: C251 V5.60.0
  .\Library\stc_usb_cdc_32.LIB (usb_req_class)
         COMMENT TYPE 0: C251 V5.60.0
  .\Library\stc_usb_cdc_32.LIB (usb_req_std)
         COMMENT TYPE 0: C251 V5.60.0
  .\Library\stc_usb_cdc_32.LIB (usb_req_vendor)
         COMMENT TYPE 0: C251 V5.60.0
  .\Library\stc_usb_cdc_32.LIB (util)
         COMMENT TYPE 0: C251 V5.60.0
  .\Library\stc_usb_cdc_32.LIB (usb_desc)
         COMMENT TYPE 0: C251 V5.60.0
  .\Objects\STC32G_NVIC.obj (STC32G_NVIC)
         COMMENT TYPE 0: C251 V5.60.0
  .\Objects\STC32G_ADC.obj (STC32G_ADC)
         COMMENT TYPE 0: C251 V5.60.0
  C:\KEIL_V5\C251\LIB\C2SFPXS.LIB (?C?FPADD)
         COMMENT TYPE 0: A251 V4.69.6.0
  C:\KEIL_V5\C251\LIB\C2SFPXS.LIB (?C?FPMUL)
         COMMENT TYPE 0: A251 V4.69.6.0
  C:\KEIL_V5\C251\LIB\C2SFPXS.LIB (?C?FPDIV)
         COMMENT TYPE 0: A251 V4.69.6.0
  C:\KEIL_V5\C251\LIB\C2SFPXS.LIB (?C?FPCMP)
         COMMENT TYPE 0: A251 V4.69.6.0
  C:\KEIL_V5\C251\LIB\C2SFPXS.LIB (?C?FCAST)
         COMMENT TYPE 0: A251 V4.69.6.0
  C:\KEIL_V5\C251\LIB\C2SFPXS.LIB (SPRINTF)
         COMMENT TYPE 0: A251 V4.69.6.0
  C:\KEIL_V5\C251\LIB\C2SFPXS.LIB (VSPRINTF)
         COMMENT TYPE 0: A251 V4.69.6.0
  C:\KEIL_V5\C251\LIB\C2SFPXS.LIB (LOG?_)
         COMMENT TYPE 0: A251 V4.69.6.0
  C:\KEIL_V5\C251\LIB\C2SFPXS.LIB (?C?FPGETOPN)
         COMMENT TYPE 0: A251 V4.69.6.0
L251 LINKER/LOCATER V4.66.93.0                                                        05/20/2026  15:29:22  PAGE 2


  C:\KEIL_V5\C251\LIB\C2SFPXS.LIB (?C?PRNFMT)
         COMMENT TYPE 0: A251 V4.69.6.0
  C:\KEIL_V5\C251\LIB\C2SFPXS.LIB (?C?FPSERIES)
         COMMENT TYPE 0: A251 V4.69.6.0
  C:\KEIL_V5\C251\LIB\C2SFPXS.LIB (?C?FPCONVERT)
         COMMENT TYPE 0: A251 V4.69.6.0
  C:\KEIL_V5\C251\LIB\C2SFPXS.LIB (?C?FTNPWR)
         COMMENT TYPE 0: A251 V4.69.6.0
  C:\KEIL_V5\C251\LIB\C2SXS.LIB (?C_START)
         COMMENT TYPE 0: A251 V4.69.6.0
  C:\KEIL_V5\C251\LIB\C2SXS.LIB (?C?INITEDATA)
         COMMENT TYPE 0: A251 V4.69.6.0
  C:\KEIL_V5\C251\LIB\C2SXS.LIB (?C?LMUL)
         COMMENT TYPE 0: A251 V4.69.6.0
  C:\KEIL_V5\C251\LIB\C2SXS.LIB (STRLEN)
         COMMENT TYPE 0: C251 V5.58.7
  C:\KEIL_V5\C251\LIB\C2SXS.LIB (memcpy)
         COMMENT TYPE 0: C251 V5.58.7
  C:\KEIL_V5\C251\LIB\C2SXS.LIB (?C?INITEDATA_END)
         COMMENT TYPE 0: A251 V4.69.6.0


ACTIVE MEMORY CLASSES OF MODULE:  .\Objects\DS109Test1_Slave (main)

BASE        START       END         USED      MEMORY CLASS
==========================================================
000000H     000000H     000FFFH     0001E1H   EDATA
000000H     000000H     000FFFH               HDATA
000000H     FF0000H     FFFFFFH     0000E0H   HCONST
FF0000H     FF0000H     FFFFFFH     00199FH   CODE
000020H.0   000020H.0   00002FH.7   000000H.3 BIT
010000H     010000H     01FFFFH     0000C0H   XDATA
FF0000H     FF0000H     FFFFFFH     000004H   CONST
000000H     000000H     00007FH     000008H   DATA


MEMORY MAP OF MODULE:  .\Objects\DS109Test1_Slave (main)


START     STOP      LENGTH    ALIGN  RELOC    MEMORY CLASS   SEGMENT NAME
=========================================================================
000000H   000007H   000008H   ---    AT..     DATA           "REG BANK 0"
000008H   00001BH   000014H   BYTE   UNIT     EDATA          ?ED?USB
00001CH   00001EH   000003H   BYTE   UNIT     EDATA          ?ED?USB_IN?USB
00001FH   00001FH   000001H   BYTE   UNIT     EDATA          ?ED?SYS_DRIVE
000020H.0 000020H.2 000000H.3 BIT    UNIT     BIT            ?BI?USB
000020H.3 000020H   000000H.5 ---    ---      **GAP**
000021H   000088H   000068H   BYTE   UNIT     EDATA          ?ED?MAIN
000089H   0000B4H   00002CH   BYTE   UNIT     EDATA          _EDATA_GROUP_
0000B5H   0000D1H   00001DH   BYTE   UNIT     EDATA          ?ED?DS135_TUR_DRIVE
0000D2H   0000DDH   00000CH   BYTE   UNIT     EDATA          ?ED?USB_CDC_DRIVE
0000DEH   0000E4H   000007H   BYTE   UNIT     EDATA          ?ED?USB_REQ_CLASS
0000E5H   0000E9H   000005H   BYTE   UNIT     EDATA          ?ED?LCD12864_SETBUFFER?UTIL
0000EAH   0001E9H   000100H   BYTE   UNIT     EDATA          ?STACK
0001EAH   00FFFFH   00FE16H   ---    ---      **GAP**
010000H   0100BFH   0000C0H   BYTE   INSEG    XDATA          ?XD?USB
0100C0H   FEFFFFH   FDFF40H   ---    ---      **GAP**
FF0000H   FF0002H   000003H   ---    OFFS..   CODE           ?CO?start251?4
FF0003H   FF00C6H   0000C4H   BYTE   INSEG    CODE           ?PR?USB_OUT_EP1?USB
FF00C7H   FF00C9H   000003H   BYTE   INSEG    CODE           ?PR?USB_SET_DESCRIPTOR?USB_REQ_STD
FF00CAH   FF00CAH   000001H   BYTE   INSEG    CODE           ?PR?USB_SUSPEND?USB
FF00CBH   FF00CDH   000003H   ---    OFFS..   CODE           ?PR?IV?25
FF00CEH   FF0A97H   0009CAH   BYTE   UNIT     CODE           ?C?LIB_CODE
FF0A98H   FF0B9AH   000103H   BYTE   INSEG    CODE           ?PR?USB_GET_STATUS?USB_REQ_STD
FF0B9BH   FF0C3FH   0000A5H   BYTE   INSEG    CODE           ?PR?USB_SET_CONFIGURATION?USB_REQ_STD
L251 LINKER/LOCATER V4.66.93.0                                                        05/20/2026  15:29:22  PAGE 3


FF0C40H   FF0CDEH   00009FH   BYTE   INSEG    CODE           ?PR?USB_CLEAR_FEATURE?USB_REQ_STD
FF0CDFH   FF0D7DH   00009FH   BYTE   INSEG    CODE           ?PR?USB_GET_DESCRIPTOR?USB_REQ_STD
FF0D7EH   FF0E1CH   00009FH   BYTE   INSEG    CODE           ?PR?LCD12864_SETBUFFER?UTIL
FF0E1DH   FF0EB5H   000099H   BYTE   INSEG    CODE           ?PR?USB_SET_FEATURE?USB_REQ_STD
FF0EB6H   FF0F40H   00008BH   BYTE   INSEG    CODE           ?PR?TUR_READ?DS135_TUR_DRIVE
FF0F41H   FF0FCAH   00008AH   BYTE   INSEG    CODE           ?PR?USB_SETUP?USB
FF0FCBH   FF1053H   000089H   BYTE   INSEG    CODE           ?PR?USB_SENDDATA?USB
FF1054H   FF10D8H   000085H   BYTE   INSEG    CODE           ?PR?USB_INIT?USB
FF10D9H   FF115BH   000083H   BYTE   UNIT     CODE           ?CO?USB_DESC
FF115CH   FF11DBH   000080H   BYTE   INSEG    CODE           ?PR?USB_ISR?USB
FF11DCH   FF1248H   00006DH   BYTE   INSEG    CODE           ?PR?USB_IN?USB
FF1249H   FF12AFH   000067H   BYTE   INSEG    CODE           ?PR?USB_CTRL_IN?USB
FF12B0H   FF130EH   00005FH   BYTE   INSEG    CODE           ?PR?GET_ADCRESULT?STC32G_ADC
FF130FH   FF136BH   00005DH   BYTE   INSEG    CODE           ?PR?ADC_INILIZE?STC32G_ADC
FF136CH   FF13C7H   00005CH   BYTE   INSEG    CODE           ?PR?USB_REQ_STD?USB_REQ_STD
FF13C8H   FF141BH   000054H   BYTE   INSEG    CODE           ?PR?USB_GET_CONFIGURATION?USB_REQ_STD
FF141CH   FF146CH   000051H   BYTE   INSEG    CODE           ?PR?MAIN?MAIN
FF146DH   FF14B9H   00004DH   BYTE   INSEG    CODE           ?PR?USB_CTRL_OUT?USB
FF14BAH   FF1503H   00004AH   BYTE   INSEG    CODE           ?PR?USB_SET_ADDRESS?USB_REQ_STD
FF1504H   FF154BH   000048H   BYTE   INSEG    CODE           ?PR?USB_RESET?USB
FF154CH   FF158EH   000043H   BYTE   INSEG    CODE           ?PR?AVG_FILTER?DS135_TUR_DRIVE
FF158FH   FF15A1H   000013H   BYTE   UNIT     CODE           ?C_C51STARTUP
FF15A2H   FF15CAH   000029H   BYTE   UNIT     CODE           ?C_C51STARTUP?2
FF15CBH   FF15CDH   000003H   BYTE   UNIT     CODE           ?C_C51STARTUP?3
FF15CEH   FF160BH   00003EH   BYTE   INSEG    CODE           ?PR?USB_GET_INTERFACE?USB_REQ_STD
FF160CH   FF1645H   00003AH   BYTE   INSEG    CODE           ?PR?USB_READ_FIFO?_?USB
FF1646H   FF167AH   000035H   BYTE   INSEG    CODE           ?PR?TUR_INIT?DS135_TUR_DRIVE
FF167BH   FF16AFH   000035H   BYTE   INSEG    CODE           ?PR?REVERSE2?UTIL
FF16B0H   FF16DCH   00002DH   BYTE   INSEG    CODE           ?PR?USB_IN_EP1?USB
FF16DDH   FF1707H   00002BH   BYTE   INSEG    CODE           ?PR?USB_CDC_INITIALIZATION?USB_CDC_DRIVE
FF1708H   FF1732H   00002BH   BYTE   INSEG    CODE           ?PR?USB_IN_EP2?USB
FF1733H   FF175BH   000029H   BYTE   INSEG    CODE           ?PR?USB_WRITE_FIFO?_?USB
FF175CH   FF1783H   000028H   BYTE   INSEG    CODE           ?PR?USB_SET_INTERFACE?USB_REQ_STD
FF1784H   FF17A9H   000026H   BYTE   INSEG    CODE           ?PR?USB_GET_LINE_CODING?USB_REQ_CLASS
FF17AAH   FF17CFH   000026H   BYTE   INSEG    CODE           ?PR?USB_SET_LINE_CODING?USB_REQ_CLASS
FF17D0H   FF17F4H   000025H   BYTE   INSEG    CODE           ?PR?MEMCPY?_?MEMCPY
FF17F5H   FF1811H   00001DH   BYTE   INSEG    CODE           ?PR?SLEEP_US?UTIL
FF1812H   FF182CH   00001BH   BYTE   INSEG    CODE           ?PR?USB_REQ_CLASS?USB_REQ_CLASS
FF182DH   FF1845H   000019H   BYTE   INSEG    CODE           ?PR?OLED12864_SETHEADER?UTIL
FF1846H   FF185EH   000019H   BYTE   INSEG    CODE           ?PR?LCD12864_SETHEADER?UTIL
FF185FH   FF1876H   000018H   BYTE   INSEG    CODE           ?PR?DELAY_MS?STC32G_DELAY
FF1877H   FF188EH   000018H   BYTE   INSEG    CODE           ?PR?SLEEP_MS?UTIL
FF188FH   FF18A5H   000017H   BYTE   INSEG    CODE           ?PR?DIS_LED_DISABLE?LED_DRIVE
FF18A6H   FF18BCH   000017H   BYTE   INSEG    CODE           ?PR?DIS_LED_ENABLE?LED_DRIVE
FF18BDH   FF18D3H   000017H   BYTE   INSEG    CODE           ?PR?DELAY_US?STC32G_DELAY
FF18D4H   FF18E9H   000016H   BYTE   INSEG    CODE           ?PR?USB_SET_CTRL_LINE_STATE?USB_REQ_CLASS
FF18EAH   FF18FEH   000015H   BYTE   INSEG    CODE           ?PR?USB_BULK_INTR_IN?USB
FF18FFH   FF1913H   000015H   BYTE   INSEG    CODE           ?PR?USB_READ_REG?USB
FF1914H   FF1926H   000013H   BYTE   INSEG    CODE           ?PR?USB_WRITE_REG?USB
FF1927H   FF1937H   000011H   BYTE   INSEG    CODE           ?PR?USB_SETUP_IN?USB
FF1938H   FF1945H   00000EH   BYTE   INSEG    CODE           ?PR?USB_SETUP_OUT?USB
FF1946H   FF1953H   00000EH   BYTE   INSEG    CODE           ?PR?USB_SETUP_STALL?USB
FF1954H   FF1961H   00000EH   BYTE   INSEG    CODE           ?PR?ADC_POWERCONTROL?STC32G_ADC
FF1962H   FF196FH   00000EH   BYTE   INSEG    CODE           ?PR?STRLEN?_?STRLEN
FF1970H   FF197CH   00000DH   BYTE   INSEG    CODE           ?PR?DIS_LED_GPIO_CONFIG?LED_DRIVE
FF197DH   FF1989H   00000DH   BYTE   INSEG    CODE           ?PR?USB_SETUP_STATUS?USB
FF198AH   FF1990H   000007H   BYTE   INSEG    CODE           ?PR?USB_CDC_GPIO_CONFIG?USB_CDC_DRIVE
FF1991H   FF1997H   000007H   BYTE   INSEG    CODE           ?PR?DIS_LED_ALL_ON?LED_DRIVE
FF1998H   FF199AH   000003H   BYTE   INSEG    CODE           ?PR?USB_SYNCH_FRAME?USB_REQ_STD
FF199BH   FF199DH   000003H   BYTE   INSEG    CODE           ?PR?USB_REQ_VENDOR?USB_REQ_VENDOR
FF199EH   FF199EH   000001H   BYTE   INSEG    CODE           ?PR?USB_RESUME?USB
FF199FH   FF19A2H   000004H   BYTE   UNIT     CONST          ?CO?PRINTF
FF19A3H   FF1A5BH   0000B9H   BYTE   UNIT     HCONST         ?C_INITEDATA
FF1A5CH   FF1A77H   00001CH   BYTE   UNIT     HCONST         ?HC?USB_CDC_DRIVE
FF1A78H   FF1A82H   00000BH   BYTE   UNIT     HCONST         ?HC?MAIN
L251 LINKER/LOCATER V4.66.93.0                                                        05/20/2026  15:29:22  PAGE 4



* * * * * * * * *   R E M O V E D     S E G M E N T S   * * * * * * * *
   *DEL*:           000065H   BYTE   INSEG    CODE           ?PR?USB_CDC_TEST?USB_CDC_DRIVE
   *DEL*:           00002BH   BYTE   INSEG    CODE           ?PR?USB_CDC_SENDDATA?USB_CDC_DRIVE
   *DEL*:           00002FH   BYTE   INSEG    CODE           ?PR?LED_FLASHING_SLOWLY?LED_DRIVE
   *DEL*:           000014H   BYTE   INSEG    CODE           ?PR?DIS_LED_TEST?LED_DRIVE
   *DEL*:           00000AH   BYTE   INSEG    CODE           ?PR?DIS_LED_INIT?LED_DRIVE
   *DEL*:           00002AH   BYTE   INSEG    CODE           ?PR?DIS_LED_JUST_ONE_ENABLE?LED_DRIVE
   *DEL*:           00002FH   BYTE   INSEG    CODE           ?PR?LED_FLASHING_RAPIDLY?LED_DRIVE
   *DEL*:           000007H   BYTE   INSEG    CODE           ?PR?DIS_LED_ALL_OFF?LED_DRIVE
   *DEL*:           000003H   BYTE   INSEG    CODE           ?PR?KEY_GPIO_INIT?KEY_DRIVE
   *DEL*:           000017H   BYTE   INSEG    CODE           ?PR?KEY_GPIO_CONFIG?KEY_DRIVE
   *DEL*:           00001AH   BYTE   INSEG    CODE           ?PR?KEY_TEST?KEY_DRIVE
   *DEL*:           000027H   BYTE   INSEG    CODE           ?PR?AREARRAYSEQUAL?SYS_DRIVE
   *DEL*:           00002DH   BYTE   INSEG    CODE           ?PR?LONG_TO_CHAR_ARRAY?SYS_DRIVE
   *DEL*:           000025H   BYTE   INSEG    CODE           ?PR?CHAR_ARRAY_TO_LONG?SYS_DRIVE
   *DEL*:           000018H   BYTE   INSEG    CODE           ?PR?WIRELESS_TRANSMISSION_USB_USB?COMMON_DRIVE
   *DEL*:           000256H   BYTE   INSEG    CODE           ?PR?GPIO_INILIZE?STC32G_GPIO
   *DEL*:           000018H   BYTE   INSEG    CODE           ?PR?USB_OUT_DONE?USB
   *DEL*:           000019H   BYTE   INSEG    CODE           ?PR?USB_BULK_INTR_OUT?USB
   *DEL*:           000016H   BYTE   INSEG    CODE           ?PR?LCD12864_DISPLAYCLEAR?UTIL
   *DEL*:           00003CH   BYTE   INSEG    CODE           ?PR?OLED12864_SCROLLRIGHT?UTIL
   *DEL*:           00001BH   BYTE   INSEG    CODE           ?PR?OLED12864_DISPLAYOFF?UTIL
   *DEL*:           00003BH   BYTE   INSEG    CODE           ?PR?OLED12864_SCROLLLEFT?UTIL
   *DEL*:           000023H   BYTE   INSEG    CODE           ?PR?OLED12864_SETADDRESSMODE?UTIL
   *DEL*:           000023H   BYTE   INSEG    CODE           ?PR?OLED12864_SETCONTRAST?UTIL
   *DEL*:           00001BH   BYTE   INSEG    CODE           ?PR?LCD12864_AUTOWRAPOFF?UTIL
   *DEL*:           000042H   BYTE   INSEG    CODE           ?PR?OLED12864_SHOWPICTURE?UTIL
   *DEL*:           00001CH   BYTE   INSEG    CODE           ?PR?OLED12864_SCROLLSTART?UTIL
   *DEL*:           000035H   BYTE   INSEG    CODE           ?PR?SEG7_SHOWFLOAT?UTIL
   *DEL*:           00004BH   BYTE   INSEG    CODE           ?PR?SEG7_SHOWSTRING?UTIL
   *DEL*:           00009FH   BYTE   INSEG    CODE           ?PR?OLED12864_SETBUFFER?UTIL
   *DEL*:           000037H   BYTE   INSEG    CODE           ?PR?SEG7_SHOWCODE?UTIL
   *DEL*:           00004BH   BYTE   INSEG    CODE           ?PR?LED40_SENDDATA?UTIL
   *DEL*:           00001CH   BYTE   INSEG    CODE           ?PR?OLED12864_DISPLAYON?UTIL
   *DEL*:           000023H   BYTE   INSEG    CODE           ?PR?LCD12864_REVERSELINE?UTIL
   *DEL*:           00001BH   BYTE   INSEG    CODE           ?PR?OLED12864_SCROLLSTOP?UTIL
   *DEL*:           00004BH   BYTE   INSEG    CODE           ?PR?LED64_SENDDATA?UTIL
   *DEL*:           00002DH   BYTE   INSEG    CODE           ?PR?PRINTF_HID?UTIL
   *DEL*:           00003FH   BYTE   INSEG    CODE           ?PR?SEG7_SHOWLONG?UTIL
   *DEL*:           00001CH   BYTE   INSEG    CODE           ?PR?LCD12864_SCROLLRIGHT?UTIL
   *DEL*:           00001CH   BYTE   INSEG    CODE           ?PR?LCD12864_AUTOWRAPON?UTIL
   *DEL*:           00001BH   BYTE   INSEG    CODE           ?PR?LCD12864_DISPLAYOFF?UTIL
   *DEL*:           000061H   BYTE   INSEG    CODE           ?PR?REVERSE4?UTIL
   *DEL*:           00001BH   BYTE   INSEG    CODE           ?PR?LCD12864_SCROLLLEFT?UTIL
   *DEL*:           00001BH   BYTE   INSEG    CODE           ?PR?OLED12864_HORIZONTALMIRROR?UTIL
   *DEL*:           000051H   BYTE   INSEG    CODE           ?PR?LCD12864_SHOWPICTURE?UTIL
   *DEL*:           00003CH   BYTE   INSEG    CODE           ?PR?OLED12864_SCROLLUP?UTIL
   *DEL*:           00001BH   BYTE   INSEG    CODE           ?PR?OLED12864_DISPLAYCONTENT?UTIL
   *DEL*:           000016H   BYTE   INSEG    CODE           ?PR?OLED12864_DISPLAYREVERSE?UTIL
   *DEL*:           00001CH   BYTE   INSEG    CODE           ?PR?OLED12864_VERTICALMIRROR?UTIL
   *DEL*:           00001CH   BYTE   INSEG    CODE           ?PR?LCD12864_CURSORRETURNHOME?UTIL
   *DEL*:           00001CH   BYTE   INSEG    CODE           ?PR?OLED12864_DISPLAYENTIRE?UTIL
   *DEL*:           00001CH   BYTE   INSEG    CODE           ?PR?LCD12864_DISPLAYON?UTIL
   *DEL*:           00001CH   BYTE   INSEG    CODE           ?PR?LCD12864_CURSORMOVERIGHT?UTIL
   *DEL*:           00003FH   BYTE   INSEG    CODE           ?PR?LCD12864_SHOWSTRING?UTIL
   *DEL*:           00001BH   BYTE   INSEG    CODE           ?PR?LCD12864_CURSOROFF?UTIL
   *DEL*:           00001BH   BYTE   INSEG    CODE           ?PR?LCD12864_CURSORMOVELEFT?UTIL
   *DEL*:           000019H   BYTE   INSEG    CODE           ?PR?SEG7_SETHEADER?UTIL
   *DEL*:           000029H   BYTE   INSEG    CODE           ?PR?LCD12864_SCROLLUP?UTIL
   *DEL*:           00001CH   BYTE   INSEG    CODE           ?PR?LCD12864_CURSORON?UTIL
   *DEL*:           000008H   BYTE   UNIT     EDATA          ?ED?REVERSE4?UTIL
   *DEL*:           000004H   BYTE   UNIT     EDATA          ?ED?SEG7_SHOWLONG?UTIL
   *DEL*:           00002CH   BYTE   UNIT     EDATA          ?ED?SEG7_SHOWSTRING?UTIL
   *DEL*:           00002CH   BYTE   UNIT     EDATA          ?ED?PRINTF_HID?UTIL
L251 LINKER/LOCATER V4.66.93.0                                                        05/20/2026  15:29:22  PAGE 5


   *DEL*:           000002H   BYTE   UNIT     EDATA          ?ED?LCD12864_SHOWSTRING?UTIL
   *DEL*:           000005H   BYTE   UNIT     EDATA          ?ED?OLED12864_SETBUFFER?UTIL
   *DEL*:           00004CH   BYTE   INSEG    CODE           ?PR?NVIC_DMA_ADC_INIT?STC32G_NVIC
   *DEL*:           00004CH   BYTE   INSEG    CODE           ?PR?NVIC_DMA_M2M_INIT?STC32G_NVIC
   *DEL*:           00004CH   BYTE   INSEG    CODE           ?PR?NVIC_DMA_LCM_INIT?STC32G_NVIC
   *DEL*:           000048H   BYTE   INSEG    CODE           ?PR?NVIC_INT0_INIT?STC32G_NVIC
   *DEL*:           000048H   BYTE   INSEG    CODE           ?PR?NVIC_INT1_INIT?STC32G_NVIC
   *DEL*:           00001AH   BYTE   INSEG    CODE           ?PR?NVIC_INT2_INIT?STC32G_NVIC
   *DEL*:           00001AH   BYTE   INSEG    CODE           ?PR?NVIC_INT3_INIT?STC32G_NVIC
   *DEL*:           00004CH   BYTE   INSEG    CODE           ?PR?NVIC_DMA_SPI_INIT?STC32G_NVIC
   *DEL*:           00001AH   BYTE   INSEG    CODE           ?PR?NVIC_INT4_INIT?STC32G_NVIC
   *DEL*:           000048H   BYTE   INSEG    CODE           ?PR?NVIC_TIMER0_INIT?STC32G_NVIC
   *DEL*:           000048H   BYTE   INSEG    CODE           ?PR?NVIC_TIMER1_INIT?STC32G_NVIC
   *DEL*:           00001AH   BYTE   INSEG    CODE           ?PR?NVIC_TIMER2_INIT?STC32G_NVIC
   *DEL*:           00001AH   BYTE   INSEG    CODE           ?PR?NVIC_TIMER3_INIT?STC32G_NVIC
   *DEL*:           00001AH   BYTE   INSEG    CODE           ?PR?NVIC_TIMER4_INIT?STC32G_NVIC
   *DEL*:           000082H   BYTE   INSEG    CODE           ?PR?NVIC_I2C_INIT?STC32G_NVIC
   *DEL*:           00004CH   BYTE   INSEG    CODE           ?PR?NVIC_DMA_I2CR_INIT?STC32G_NVIC
   *DEL*:           00004CH   BYTE   INSEG    CODE           ?PR?NVIC_DMA_I2CT_INIT?STC32G_NVIC
   *DEL*:           000048H   BYTE   INSEG    CODE           ?PR?NVIC_ADC_INIT?STC32G_NVIC
   *DEL*:           00004CH   BYTE   INSEG    CODE           ?PR?NVIC_DMA_UART1_RX_INIT?STC32G_NVIC
   *DEL*:           00004CH   BYTE   INSEG    CODE           ?PR?NVIC_DMA_UART2_RX_INIT?STC32G_NVIC
   *DEL*:           00004CH   BYTE   INSEG    CODE           ?PR?NVIC_DMA_UART3_RX_INIT?STC32G_NVIC
   *DEL*:           00004CH   BYTE   INSEG    CODE           ?PR?NVIC_DMA_UART1_TX_INIT?STC32G_NVIC
   *DEL*:           00004CH   BYTE   INSEG    CODE           ?PR?NVIC_DMA_UART4_RX_INIT?STC32G_NVIC
   *DEL*:           00004CH   BYTE   INSEG    CODE           ?PR?NVIC_DMA_UART2_TX_INIT?STC32G_NVIC
   *DEL*:           00004CH   BYTE   INSEG    CODE           ?PR?NVIC_DMA_UART3_TX_INIT?STC32G_NVIC
   *DEL*:           00008BH   BYTE   INSEG    CODE           ?PR?NVIC_CAN_INIT?STC32G_NVIC
   *DEL*:           00004CH   BYTE   INSEG    CODE           ?PR?NVIC_DMA_UART4_TX_INIT?STC32G_NVIC
   *DEL*:           00003CH   BYTE   INSEG    CODE           ?PR?NVIC_LCM_INIT?STC32G_NVIC
   *DEL*:           000053H   BYTE   INSEG    CODE           ?PR?NVIC_CMP_INIT?STC32G_NVIC
   *DEL*:           00004EH   BYTE   INSEG    CODE           ?PR?NVIC_LIN_INIT?STC32G_NVIC
   *DEL*:           000046H   BYTE   INSEG    CODE           ?PR?NVIC_RTC_INIT?STC32G_NVIC
   *DEL*:           00004EH   BYTE   INSEG    CODE           ?PR?NVIC_SPI_INIT?STC32G_NVIC
   *DEL*:           000048H   BYTE   INSEG    CODE           ?PR?NVIC_UART1_INIT?STC32G_NVIC
   *DEL*:           00004EH   BYTE   INSEG    CODE           ?PR?NVIC_UART2_INIT?STC32G_NVIC
   *DEL*:           00004EH   BYTE   INSEG    CODE           ?PR?NVIC_UART3_INIT?STC32G_NVIC
   *DEL*:           00004EH   BYTE   INSEG    CODE           ?PR?NVIC_UART4_INIT?STC32G_NVIC
   *DEL*:           000096H   BYTE   INSEG    CODE           ?PR?NVIC_PWM_INIT?STC32G_NVIC
   *DEL*:           000004H   BYTE   UNIT     EDATA          ?ED?VSPRINTF



OVERLAY MAP OF MODULE:   .\Objects\DS109Test1_Slave (main)


FUNCTION/MODULE                               EDATA_GROUP
--> CALLED FUNCTION/MODULE                    START  STOP
=========================================================
usb_isr/usb                                   ----- -----
  +--> usb_read_reg/usb
  +--> usb_resume/usb
  +--> usb_reset/usb
  +--> usb_setup/usb
  +--> usb_in_ep1/usb
  +--> usb_in_ep2/usb
  +--> usb_out_ep1/usb
  +--> usb_suspend/usb

usb_read_reg/usb                              ----- -----

usb_resume/usb                                ----- -----

usb_reset/usb                                 ----- -----
  +--> usb_write_reg/usb
L251 LINKER/LOCATER V4.66.93.0                                                        05/20/2026  15:29:22  PAGE 6



usb_write_reg/usb                             ----- -----

usb_setup/usb                                 ----- -----
  +--> usb_write_reg/usb
  +--> usb_read_reg/usb
  +--> usb_read_fifo?_/usb
  +--> reverse2/util
  +--> usb_req_std/usb_req_std
  +--> usb_req_class/usb_req_class
  +--> usb_req_vendor/usb_req_vendor
  +--> usb_setup_stall/usb
  +--> usb_ctrl_in/usb
  +--> usb_ctrl_out/usb

usb_read_fifo?_/usb                           ----- -----
  +--> usb_read_reg/usb

reverse2/util                                 0089H 008CH

usb_req_std/usb_req_std                       ----- -----
  +--> usb_get_status/usb_req_std
  +--> usb_clear_feature/usb_req_std
  +--> usb_set_feature/usb_req_std
  +--> usb_set_address/usb_req_std
  +--> usb_get_descriptor/usb_req_std
  +--> usb_set_descriptor/usb_req_std
  +--> usb_get_configuration/usb_req_std
  +--> usb_set_configuration/usb_req_std
  +--> usb_get_interface/usb_req_std
  +--> usb_set_interface/usb_req_std
  +--> usb_synch_frame/usb_req_std
  +--> usb_setup_stall/usb

usb_get_status/usb_req_std                    ----- -----
  +--> usb_setup_stall/usb
  +--> usb_setup_in/usb

usb_setup_stall/usb                           ----- -----
  +--> usb_write_reg/usb

usb_setup_in/usb                              ----- -----
  +--> usb_write_reg/usb
  +--> usb_ctrl_in/usb

usb_ctrl_in/usb                               ----- -----
  +--> usb_write_reg/usb
  +--> usb_read_reg/usb
  +--> usb_write_fifo?_/usb

usb_write_fifo?_/usb                          ----- -----
  +--> usb_write_reg/usb

usb_clear_feature/usb_req_std                 ----- -----
  +--> usb_write_reg/usb
  +--> usb_setup_stall/usb
  +--> usb_setup_status/usb

usb_setup_status/usb                          ----- -----
  +--> usb_write_reg/usb

usb_set_feature/usb_req_std                   ----- -----
  +--> usb_write_reg/usb
  +--> usb_setup_stall/usb
  +--> usb_setup_status/usb
L251 LINKER/LOCATER V4.66.93.0                                                        05/20/2026  15:29:22  PAGE 7



usb_set_address/usb_req_std                   ----- -----
  +--> usb_setup_stall/usb
  +--> usb_write_reg/usb
  +--> usb_setup_status/usb

usb_get_descriptor/usb_req_std                ----- -----
  +--> usb_setup_stall/usb
  +--> usb_setup_in/usb

usb_set_descriptor/usb_req_std                ----- -----
  +--> usb_setup_stall/usb

usb_get_configuration/usb_req_std             ----- -----
  +--> usb_setup_stall/usb
  +--> usb_setup_in/usb

usb_set_configuration/usb_req_std             ----- -----
  +--> usb_setup_stall/usb
  +--> usb_write_reg/usb
  +--> usb_setup_status/usb

usb_get_interface/usb_req_std                 ----- -----
  +--> usb_setup_stall/usb
  +--> usb_setup_in/usb

usb_set_interface/usb_req_std                 ----- -----
  +--> usb_setup_stall/usb
  +--> usb_setup_status/usb

usb_synch_frame/usb_req_std                   ----- -----
  +--> usb_setup_stall/usb

usb_req_class/usb_req_class                   ----- -----
  +--> usb_set_line_coding/usb_req_class
  +--> usb_get_line_coding/usb_req_class
  +--> usb_set_ctrl_line_state/usb_req_class
  +--> usb_setup_stall/usb

usb_set_line_coding/usb_req_class             ----- -----
  +--> usb_setup_stall/usb
  +--> usb_setup_out/usb

usb_setup_out/usb                             ----- -----
  +--> usb_write_reg/usb

usb_get_line_coding/usb_req_class             ----- -----
  +--> usb_setup_stall/usb
  +--> usb_setup_in/usb

usb_set_ctrl_line_state/usb_req_class         ----- -----
  +--> usb_setup_stall/usb
  +--> usb_setup_status/usb

usb_req_vendor/usb_req_vendor                 ----- -----
  +--> usb_setup_stall/usb

usb_ctrl_out/usb                              ----- -----
  +--> usb_write_reg/usb
  +--> usb_read_reg/usb
  +--> usb_read_fifo?_/usb

usb_in_ep1/usb                                ----- -----
  +--> usb_write_reg/usb
  +--> usb_read_reg/usb
L251 LINKER/LOCATER V4.66.93.0                                                        05/20/2026  15:29:22  PAGE 8



usb_in_ep2/usb                                ----- -----
  +--> usb_write_reg/usb
  +--> usb_read_reg/usb

usb_out_ep1/usb                               ----- -----
  +--> usb_write_reg/usb
  +--> usb_read_reg/usb
  +--> usb_read_fifo?_/usb
  +--> sleep_ms/util

sleep_ms/util                                 ----- -----
  +--> sleep_us/util

sleep_us/util                                 ----- -----

usb_suspend/usb                               ----- -----

*** NEW ROOT ********************************

?C_C51STARTUP                                 ----- -----

*** NEW ROOT ********************************

?C_C51STARTUP?3                               ----- -----
  +--> main/main

main/main                                     ----- -----
  +--> USB_CDC_Initialization/USB_CDC_drive
  +--> Tur_Init/DS135_Tur_drive
  +--> Tur_Read/DS135_Tur_drive
  +--> SPRINTF/SPRINTF
  +--> strlen?_/STRLEN
  +--> USB_SendData/usb
  +--> delay_ms/STC32G_Delay

USB_CDC_Initialization/USB_CDC_drive          ----- -----
  +--> USB_CDC_GPIO_config/USB_CDC_drive
  +--> usb_init/usb

USB_CDC_GPIO_config/USB_CDC_drive             ----- -----

usb_init/usb                                  ----- -----
  +--> usb_write_reg/usb

Tur_Init/DS135_Tur_drive                      008DH 0091H
  +--> ADC_Inilize/STC32G_ADC
  +--> ADC_PowerControl/STC32G_ADC

ADC_Inilize/STC32G_ADC                        ----- -----

ADC_PowerControl/STC32G_ADC                   ----- -----

Tur_Read/DS135_Tur_drive                      ----- -----
  +--> Get_ADCResult/STC32G_ADC
  +--> Avg_Filter/DS135_Tur_drive
  +--> LOG?_/LOG?_

Get_ADCResult/STC32G_ADC                      ----- -----

Avg_Filter/DS135_Tur_drive                    ----- -----

LOG?_/LOG?_                                   ----- -----

SPRINTF/SPRINTF                               008DH 00B4H
L251 LINKER/LOCATER V4.66.93.0                                                        05/20/2026  15:29:22  PAGE 9


  +--> OUT/SPRINTF

OUT/SPRINTF                                   ----- -----
  +--> PUTCH/SPRINTF

PUTCH/SPRINTF                                 ----- -----

strlen?_/STRLEN                               ----- -----

USB_SendData/usb                              008DH 0093H
  +--> usb_write_reg/usb
  +--> usb_read_reg/usb
  +--> usb_bulk_intr_in/usb

usb_bulk_intr_in/usb                          ----- -----
  +--> usb_write_fifo?_/usb
  +--> usb_write_reg/usb

delay_ms/STC32G_Delay                         ----- -----
  +--> delay_us/STC32G_Delay

delay_us/STC32G_Delay                         ----- -----

*** NEW ROOT ********************************

?C_C51STARTUP?2                               ----- -----



PUBLIC SYMBOLS OF MODULE:  .\Objects\DS109Test1_Slave (main)


      VALUE       CLASS    TYPE      PUBLIC SYMBOL NAME
      =================================================
      000000FFH   NUMBER   ---       ?C?CODESEG
      00FF02FDH   CODE     NEAR LAB  ?C?FCASTC
      00FF02F8H   CODE     NEAR LAB  ?C?FCASTI
      00FF02F3H   CODE     NEAR LAB  ?C?FCASTL
      00FF08EAH   CODE     ---       ?C?FP2SERIES
      00FF00D4H   CODE     ---       ?C?FPADD
      00FF02AFH   CODE     ---       ?C?FPCMP
      00FF02ADH   CODE     ---       ?C?FPCMP3
      00FF0925H   CODE     ---       ?C?FPCONVERT
      00FF022CH   CODE     ---       ?C?FPDIV
      00FF045DH   CODE     ---       ?C?FPGETOPN2
      00FF018CH   CODE     ---       ?C?FPMUL
      00FF049AH   CODE     ---       ?C?FPNANRESULT
      00FF04A2H   CODE     ---       ?C?FPOVERFLOW
      00FF0476H   CODE     ---       ?C?FPRESULT
      00FF048CH   CODE     ---       ?C?FPRESULT2
      00FF09DDH   CODE     ---       ?C?FPROUND
      00FF08F3H   CODE     ---       ?C?FPSERIES
      00FF00D1H   CODE     ---       ?C?FPSUB
      00FF049FH   CODE     ---       ?C?FPUNDERFLOW
      00FF0A50H   CODE     ---       ?C?FTNPWR
      00FF15A2H   CODE     ---       ?C?INITEDATA
      00FF1A5AH   HCONST   WORD      ?C?INITEDATA_END
      00FF0A87H   CODE     ---       ?C?LMUL
      00FF04DBH   CODE     ---       ?C?PRNFMT
      00FF0000H   CODE     ---       ?C?STARTUP
      00000001H   NUMBER   ---       ?C?XDATASEG
      00FF0000H   CODE     ---       ?C_STARTUP
*DEL*:00000028H   EDATA    BYTE      ?printf_hid?BYTE
*DEL*:00000028H   EDATA    BYTE      ?SEG7_ShowString?BYTE
      000000B5H   EDATA    ---       ?sprintf?BYTE
L251 LINKER/LOCATER V4.66.93.0                                                        05/20/2026  15:29:22  PAGE 10


*DEL*:1FFFFFF8H   EDATA    ---       ?vsprintf?BYTE
*SFR* 000000BCH   DATA     BYTE      ADC_CONTR
*SFR* 000000BCH.5 DATA     BIT       ADC_FLAG
      00FF130FH   CODE     ---       ADC_Inilize
*SFR* 000000BCH.7 DATA     BIT       ADC_POWER
      00FF1954H   CODE     ---       ADC_PowerControl
*SFR* 000000BDH   DATA     BYTE      ADC_RES
*SFR* 000000BEH   DATA     BYTE      ADC_RESL
*SFR* 000000BCH.6 DATA     BIT       ADC_START
      000000C9H   EDATA    FLOAT     adc_vol
*SFR* 000000DEH   DATA     BYTE      ADCCFG
*DEL*:00000000H   CODE     ---       areArraysEqual
*SFR* 000000EFH   DATA     BYTE      AUXINTIF
*SFR* 0000008EH   DATA     BYTE      AUXR
*SFR* 00000097H   DATA     BYTE      AUXR2
      00000020H.1 BIT      BIT       bUsbFeatureReady
      00000020H.2 BIT      BIT       bUsbInBusy
      00000020H.0 BIT      BIT       bUsbOutReady
*SFR* 000000F1H.5 DATA     BIT       CAN2IE
*SFR* 000000F1H   DATA     BYTE      CANICR
*SFR* 000000F1H.1 DATA     BIT       CANIE
*DEL*:00000000H   CODE     ---       Char_Array_To_Long
*SFR* 000000EAH   DATA     BYTE      CKCON
*SFR* 000000E6H   DATA     BYTE      CMPCR1
*SFR* 000000E7H   DATA     BYTE      CMPCR2
      00FF110DH   CODE     ---       CONFIGDESC
      000000B5H   EDATA    ---       dat
      00FF185FH   CODE     ---       delay_ms
      00FF18BDH   CODE     ---       delay_us
      00FF10FBH   CODE     ---       DEVICEDESC
      00000012H   EDATA    BYTE      DeviceState
*DEL*:00000000H   CODE     ---       DIS_LED_ALL_off
      00FF1991H   CODE     ---       DIS_LED_ALL_on
      00FF188FH   CODE     ---       DIS_LED_Disable
      00FF18A6H   CODE     ---       DIS_LED_Enable
      00FF1970H   CODE     ---       DIS_LED_GPIO_config
*DEL*:00000000H   CODE     ---       DIS_LED_init
*DEL*:00000000H   CODE     ---       DIS_LED_Just_One_Enable
*DEL*:00000000H   CODE     ---       DIS_LED_Test
*SFR* 000000A8H.7 DATA     BIT       EA
*SFR* 000000A8H.5 DATA     BIT       EADC
*SFR* 000000BAH.7 DATA     BIT       EAXFR
      00000013H   EDATA    ---       Ep0State
*SFR* 000000A8H.4 DATA     BIT       ES
*SFR* 000000AFH.0 DATA     BIT       ES2
*SFR* 000000AFH.3 DATA     BIT       ES3
*SFR* 000000AFH.4 DATA     BIT       ES4
*SFR* 000000AFH.1 DATA     BIT       ESPI
*SFR* 000000A8H.1 DATA     BIT       ET0
*SFR* 000000A8H.3 DATA     BIT       ET1
*SFR* 000000AFH.2 DATA     BIT       ET2
*SFR* 000000AFH.5 DATA     BIT       ET3
*SFR* 000000AFH.6 DATA     BIT       ET4
*SFR* 000000AFH.7 DATA     BIT       EUSB
*SFR* 000000A8H.0 DATA     BIT       EX0
*SFR* 000000A8H.2 DATA     BIT       EX1
*SFR* 0000008FH.4 DATA     BIT       EX2
*SFR* 0000008FH.5 DATA     BIT       EX3
*SFR* 0000008FH.6 DATA     BIT       EX4
      00FF12B0H   CODE     ---       Get_ADCResult
*DEL*:00000000H   CODE     ---       GPIO_Inilize
*SFR* 000000B0H.2 DATA     BIT       HOME_key
*SFR* 000000C7H   DATA     BYTE      IAP_CONTR
*SFR* 000000A8H   DATA     BYTE      IE
*SFR* 000000AFH   DATA     BYTE      IE2
L251 LINKER/LOCATER V4.66.93.0                                                        05/20/2026  15:29:22  PAGE 11


      0000001AH   EDATA    BYTE      InEpState
*SFR* 0000008FH   DATA     BYTE      INTCLKO
*SFR* 000000B8H   DATA     BYTE      IP
*SFR* 000000B5H   DATA     BYTE      IP2
*SFR* 000000B6H   DATA     BYTE      IP2H
*SFR* 000000DFH   DATA     BYTE      IP3
*SFR* 000000EEH   DATA     BYTE      IP3H
*SFR* 000000B7H   DATA     BYTE      IPH
*SFR* 0000009DH   DATA     BYTE      IRCBAND
*DEL*:00000000H   CODE     ---       KEY_GPIO_config
*DEL*:00000000H   CODE     ---       KEY_GPIO_init
*DEL*:00000000H   CODE     ---       KEY_Test
      00FF10F7H   CODE     ---       LANGIDDESC
*DEL*:00000000H   CODE     ---       LCD12864_AutoWrapOff
*DEL*:00000000H   CODE     ---       LCD12864_AutoWrapOn
*DEL*:00000000H   CODE     ---       LCD12864_CursorMoveLeft
*DEL*:00000000H   CODE     ---       LCD12864_CursorMoveRight
*DEL*:00000000H   CODE     ---       LCD12864_CursorOff
*DEL*:00000000H   CODE     ---       LCD12864_CursorOn
*DEL*:00000000H   CODE     ---       LCD12864_CursorReturnHome
*DEL*:00000000H   CODE     ---       LCD12864_DisplayClear
*DEL*:00000000H   CODE     ---       LCD12864_DisplayOff
*DEL*:00000000H   CODE     ---       LCD12864_DisplayOn
*DEL*:00000000H   CODE     ---       LCD12864_ReverseLine
*DEL*:00000000H   CODE     ---       LCD12864_ScrollLeft
*DEL*:00000000H   CODE     ---       LCD12864_ScrollRight
*DEL*:00000000H   CODE     ---       LCD12864_ScrollUp
*DEL*:00000000H   CODE     ---       LCD12864_ShowPicture
*DEL*:00000000H   CODE     ---       LCD12864_ShowString
*DEL*:00000000H   CODE     ---       LED40_SendData
*DEL*:00000000H   CODE     ---       LED64_SendData
*DEL*:00000000H   CODE     ---       LED_flashing_rapidly
*DEL*:00000000H   CODE     ---       LED_flashing_slowly
      000000DEH   EDATA    ---       LineCoding
*SFR* 000000F9H   DATA     BYTE      LINICR
*SFR* 000000F9H.1 DATA     BIT       LINIE
      00FF0398H   CODE     NEAR LAB  log?_
*DEL*:00000000H   CODE     ---       Long_To_Char_Array
      00FF141CH   CODE     ---       main
      00FF1154H   CODE     ---       MANUFACTDESC
      00FF17D0H   CODE     ---       memcpy?_
*SFR* 000000E6H.4 DATA     BIT       NIE
*DEL*:00000000H   CODE     ---       NVIC_ADC_Init
*DEL*:00000000H   CODE     ---       NVIC_CAN_Init
*DEL*:00000000H   CODE     ---       NVIC_CMP_Init
*DEL*:00000000H   CODE     ---       NVIC_DMA_ADC_Init
*DEL*:00000000H   CODE     ---       NVIC_DMA_I2CR_Init
*DEL*:00000000H   CODE     ---       NVIC_DMA_I2CT_Init
*DEL*:00000000H   CODE     ---       NVIC_DMA_LCM_Init
*DEL*:00000000H   CODE     ---       NVIC_DMA_M2M_Init
*DEL*:00000000H   CODE     ---       NVIC_DMA_SPI_Init
*DEL*:00000000H   CODE     ---       NVIC_DMA_UART1_Rx_Init
*DEL*:00000000H   CODE     ---       NVIC_DMA_UART1_Tx_Init
*DEL*:00000000H   CODE     ---       NVIC_DMA_UART2_Rx_Init
*DEL*:00000000H   CODE     ---       NVIC_DMA_UART2_Tx_Init
*DEL*:00000000H   CODE     ---       NVIC_DMA_UART3_Rx_Init
*DEL*:00000000H   CODE     ---       NVIC_DMA_UART3_Tx_Init
*DEL*:00000000H   CODE     ---       NVIC_DMA_UART4_Rx_Init
*DEL*:00000000H   CODE     ---       NVIC_DMA_UART4_Tx_Init
*DEL*:00000000H   CODE     ---       NVIC_I2C_Init
*DEL*:00000000H   CODE     ---       NVIC_INT0_Init
*DEL*:00000000H   CODE     ---       NVIC_INT1_Init
*DEL*:00000000H   CODE     ---       NVIC_INT2_Init
*DEL*:00000000H   CODE     ---       NVIC_INT3_Init
*DEL*:00000000H   CODE     ---       NVIC_INT4_Init
L251 LINKER/LOCATER V4.66.93.0                                                        05/20/2026  15:29:22  PAGE 12


*DEL*:00000000H   CODE     ---       NVIC_LCM_Init
*DEL*:00000000H   CODE     ---       NVIC_LIN_Init
*DEL*:00000000H   CODE     ---       NVIC_PWM_Init
*DEL*:00000000H   CODE     ---       NVIC_RTC_Init
*DEL*:00000000H   CODE     ---       NVIC_SPI_Init
*DEL*:00000000H   CODE     ---       NVIC_Timer0_Init
*DEL*:00000000H   CODE     ---       NVIC_Timer1_Init
*DEL*:00000000H   CODE     ---       NVIC_Timer2_Init
*DEL*:00000000H   CODE     ---       NVIC_Timer3_Init
*DEL*:00000000H   CODE     ---       NVIC_Timer4_Init
*DEL*:00000000H   CODE     ---       NVIC_UART1_Init
*DEL*:00000000H   CODE     ---       NVIC_UART2_Init
*DEL*:00000000H   CODE     ---       NVIC_UART3_Init
*DEL*:00000000H   CODE     ---       NVIC_UART4_Init
*DEL*:00000000H   CODE     ---       OLED12864_DisplayContent
*DEL*:00000000H   CODE     ---       OLED12864_DisplayEntire
*DEL*:00000000H   CODE     ---       OLED12864_DisplayOff
*DEL*:00000000H   CODE     ---       OLED12864_DisplayOn
*DEL*:00000000H   CODE     ---       OLED12864_DisplayReverse
*DEL*:00000000H   CODE     ---       OLED12864_HorizontalMirror
*DEL*:00000000H   CODE     ---       OLED12864_ScrollLeft
*DEL*:00000000H   CODE     ---       OLED12864_ScrollRight
*DEL*:00000000H   CODE     ---       OLED12864_ScrollStart
*DEL*:00000000H   CODE     ---       OLED12864_ScrollStop
*DEL*:00000000H   CODE     ---       OLED12864_ScrollUp
*DEL*:00000000H   CODE     ---       OLED12864_SetAddressMode
*DEL*:00000000H   CODE     ---       OLED12864_SetContrast
*DEL*:00000000H   CODE     ---       OLED12864_ShowPicture
*DEL*:00000000H   CODE     ---       OLED12864_VerticalMirror
      0000001BH   EDATA    BYTE      OutEpState
      00000010H   EDATA    BYTE      OutNumber
*SFR* 00000080H   DATA     BYTE      P0
*SFR* 00000094H   DATA     BYTE      P0M0
*SFR* 00000093H   DATA     BYTE      P0M1
*SFR* 00000090H   DATA     BYTE      P1
*SFR* 00000092H   DATA     BYTE      P1M0
*SFR* 00000091H   DATA     BYTE      P1M1
*SFR* 000000A0H   DATA     BYTE      P2
*SFR* 00000096H   DATA     BYTE      P2M0
*SFR* 00000095H   DATA     BYTE      P2M1
*SFR* 000000B0H   DATA     BYTE      P3
*SFR* 000000B2H   DATA     BYTE      P3M0
*SFR* 000000B1H   DATA     BYTE      P3M1
*SFR* 000000C0H   DATA     BYTE      P4
*SFR* 000000B4H   DATA     BYTE      P4M0
*SFR* 000000B3H   DATA     BYTE      P4M1
*SFR* 000000C8H   DATA     BYTE      P5
*SFR* 000000CAH   DATA     BYTE      P5M0
*SFR* 000000C9H   DATA     BYTE      P5M1
*SFR* 000000E8H   DATA     BYTE      P6
*SFR* 000000CCH   DATA     BYTE      P6M0
*SFR* 000000CBH   DATA     BYTE      P6M1
*SFR* 000000F8H   DATA     BYTE      P7
*SFR* 000000E2H   DATA     BYTE      P7M0
*SFR* 000000E1H   DATA     BYTE      P7M1
*SFR* 000000A2H   DATA     BYTE      P_SW1
*SFR* 000000BAH   DATA     BYTE      P_SW2
*SFR* 000000BBH   DATA     BYTE      P_SW3
      00FF1150H   CODE     ---       PACKET0
      00FF1152H   CODE     ---       PACKET1
*SFR* 000000B8H.5 DATA     BIT       PADC
*SFR* 000000B7H.5 DATA     BIT       PADCH
*SFR* 000000F1H.7 DATA     BIT       PCAN2H
*SFR* 000000F1H.4 DATA     BIT       PCAN2L
*SFR* 000000F1H.3 DATA     BIT       PCANH
L251 LINKER/LOCATER V4.66.93.0                                                        05/20/2026  15:29:22  PAGE 13


*SFR* 000000F1H.0 DATA     BIT       PCANL
*SFR* 000000B5H.5 DATA     BIT       PCMP
*SFR* 000000B6H.5 DATA     BIT       PCMPH
*SFR* 00000087H   DATA     BYTE      PCON
*SFR* 000000E6H.5 DATA     BIT       PIE
*SFR* 000000F9H.3 DATA     BIT       PLINH
*SFR* 000000F9H.0 DATA     BIT       PLINL
*SFR* 000000B5H.2 DATA     BIT       PPWMA
*SFR* 000000B6H.2 DATA     BIT       PPWMAH
*SFR* 000000B5H.3 DATA     BIT       PPWMB
*SFR* 000000B6H.3 DATA     BIT       PPWMBH
*DEL*:00000000H   CODE     ---       printf_hid
      00FF10D9H   CODE     ---       PRODUCTDESC
*SFR* 000000DFH.2 DATA     BIT       PRTC
*SFR* 000000EEH.2 DATA     BIT       PRTCH
*SFR* 000000B8H.4 DATA     BIT       PS
*SFR* 000000B5H.0 DATA     BIT       PS2
*SFR* 000000B6H.0 DATA     BIT       PS2H
*SFR* 000000DFH.0 DATA     BIT       PS3
*SFR* 000000EEH.0 DATA     BIT       PS3H
*SFR* 000000DFH.1 DATA     BIT       PS4
*SFR* 000000EEH.1 DATA     BIT       PS4H
*SFR* 000000B7H.4 DATA     BIT       PSH
*SFR* 000000B5H.1 DATA     BIT       PSPI
*SFR* 000000B6H.1 DATA     BIT       PSPIH
*SFR* 000000D0H   DATA     BYTE      PSW
*SFR* 000000B8H.1 DATA     BIT       PT0
*SFR* 000000B7H.1 DATA     BIT       PT0H
*SFR* 000000B8H.3 DATA     BIT       PT1
*SFR* 000000B7H.3 DATA     BIT       PT1H
*SFR* 000000B8H.0 DATA     BIT       PX0
*SFR* 000000B7H.0 DATA     BIT       PX0H
*SFR* 000000B8H.2 DATA     BIT       PX1
*SFR* 000000B7H.2 DATA     BIT       PX1H
*SFR* 000000A0H.3 DATA     BIT       Range1_LED
*SFR* 000000A0H.2 DATA     BIT       Range2_LED
*SFR* 000000A0H.1 DATA     BIT       Range3_LED
      000000CDH   EDATA    FLOAT     ref_vol
*SFR* 000000DEH.5 DATA     BIT       RESFMT
      00FF167BH   CODE     ---       reverse2
*DEL*:00000000H   CODE     ---       reverse4
*SFR* 000000FFH   DATA     BYTE      RSTCFG
*SFR* 0000009AH   DATA     BYTE      S2CON
*SFR* 000000ACH   DATA     BYTE      S3CON
*SFR* 000000FDH   DATA     BYTE      S4CON
*SFR* 00000098H   DATA     BYTE      SCON
*DEL*:00000000H   CODE     ---       SEG7_ShowCode
*DEL*:00000000H   CODE     ---       SEG7_ShowFloat
*DEL*:00000000H   CODE     ---       SEG7_ShowLong
*DEL*:00000000H   CODE     ---       SEG7_ShowString
      00000008H   EDATA    ---       Setup
      00FF1877H   CODE     ---       sleep_ms
      00FF17F5H   CODE     ---       sleep_us
*SFR* 000000CEH   DATA     BYTE      SPCTL
      00FF0330H   CODE     NEAR LAB  sprintf
*SFR* 000000CDH   DATA     BYTE      SPSTAT
      00FF1962H   CODE     ---       strlen?_
*SFR* 000000DDH   DATA     BYTE      T4T3M
*SFR* 00000088H   DATA     BYTE      TCON
      00000021H   EDATA    ---       test
*SFR* 00000089H   DATA     BYTE      TMOD
*SFR* 00000090H.1 DATA     BIT       Tr
      0000001FH   EDATA    BYTE      Transmission_mode_flag
      00000085H   EDATA    FLOAT     tur
      00FF1646H   CODE     ---       Tur_Init
L251 LINKER/LOCATER V4.66.93.0                                                        05/20/2026  15:29:22  PAGE 14


      00FF0EB6H   CODE     ---       Tur_Read
      00FF18EAH   CODE     ---       usb_bulk_intr_in
*DEL*:00000000H   CODE     ---       usb_bulk_intr_out
      00FF198AH   CODE     ---       USB_CDC_GPIO_config
      00FF16DDH   CODE     ---       USB_CDC_Initialization
*DEL*:00000000H   CODE     ---       USB_CDC_Senddata
*DEL*:00000000H   CODE     ---       USB_CDC_Test
      00FF0C40H   CODE     ---       usb_clear_feature
      00FF1249H   CODE     ---       usb_ctrl_in
      00FF146DH   CODE     ---       usb_ctrl_out
      00FF13C8H   CODE     ---       usb_get_configuration
      00FF0CDFH   CODE     ---       usb_get_descriptor
      00FF15CEH   CODE     ---       usb_get_interface
      00FF1784H   CODE     ---       usb_get_line_coding
      00FF0A98H   CODE     ---       usb_get_status
      00FF11DCH   CODE     ---       usb_IN
      00FF16B0H   CODE     ---       usb_in_ep1
      00FF1708H   CODE     ---       usb_in_ep2
      00FF1054H   CODE     ---       usb_init
      00FF115CH   CODE     ---       usb_isr
*DEL*:00000000H   CODE     ---       usb_OUT_done
      00FF0003H   CODE     ---       usb_out_ep1
      00FF160CH   CODE     ---       usb_read_fifo?_
      00FF18FFH   CODE     ---       usb_read_reg
      00FF1812H   CODE     ---       usb_req_class
      00FF136CH   CODE     ---       usb_req_std
      00FF199BH   CODE     ---       usb_req_vendor
      00FF1504H   CODE     ---       usb_reset
      00FF199EH   CODE     ---       usb_resume
      00FF0FCBH   CODE     ---       USB_SendData
      00FF14BAH   CODE     ---       usb_set_address
      00FF0B9BH   CODE     ---       usb_set_configuration
      00FF18D4H   CODE     ---       usb_set_ctrl_line_state
      00FF00C7H   CODE     ---       usb_set_descriptor
      00FF0E1DH   CODE     ---       usb_set_feature
      00FF175CH   CODE     ---       usb_set_interface
      00FF17AAH   CODE     ---       usb_set_line_coding
      00FF0F41H   CODE     ---       usb_setup
      00FF1927H   CODE     ---       usb_setup_in
      00FF1938H   CODE     ---       usb_setup_out
      00FF1946H   CODE     ---       usb_setup_stall
      00FF197DH   CODE     ---       usb_setup_status
      00FF00CAH   CODE     ---       usb_suspend
      00FF1998H   CODE     ---       usb_synch_frame
      00FF1733H   CODE     ---       usb_write_fifo?_
      00FF1914H   CODE     ---       usb_write_reg
*SFR* 000000FCH   DATA     BYTE      USBADR
*SFR* 000000DCH   DATA     BYTE      USBCLK
*SFR* 000000F4H   DATA     BYTE      USBCON
*SFR* 000000ECH   DATA     BYTE      USBDAT
      00010080H   XDATA    ---       UsbFeatureBuffer
      00010000H   XDATA    ---       UsbInBuffer
      00010040H   XDATA    ---       UsbOutBuffer
      000000DAH   EDATA    ---       USER_DEVICEDESC
      000000D6H   EDATA    ---       USER_PRODUCTDESC
      000000D2H   EDATA    ---       USER_STCISPCMD
      00FF0350H   CODE     NEAR LAB  vsprintf
*SFR* 000000C1H   DATA     BYTE      WDT_CONTR
*DEL*:00000000H   CODE     ---       Wireless_transmission_USB_USB
*SFR* 000000E9H   DATA     BYTE      WTST



SYMBOL TABLE OF MODULE:  .\Objects\DS109Test1_Slave (main)

L251 LINKER/LOCATER V4.66.93.0                                                        05/20/2026  15:29:22  PAGE 15


      VALUE       REP       CLASS    TYPE      SYMBOL NAME
      ====================================================
      ---         MODULE    ---      ---       main
      00FF141CH   PUBLIC    CODE     ---       main
      00000021H   PUBLIC    EDATA    ---       test
      00000085H   PUBLIC    EDATA    FLOAT     tur
      000000D0H   SFRSYM    DATA     BYTE      PSW
      000000BAH.7 SFRSYM    DATA     BIT       EAXFR
      0000009DH   SFRSYM    DATA     BYTE      IRCBAND
      00000097H   SFRSYM    DATA     BYTE      AUXR2
      000000EAH   SFRSYM    DATA     BYTE      CKCON
      000000EFH   SFRSYM    DATA     BYTE      AUXINTIF
      000000FDH   SFRSYM    DATA     BYTE      S4CON
      000000ACH   SFRSYM    DATA     BYTE      S3CON
      0000009AH   SFRSYM    DATA     BYTE      S2CON
      000000B7H   SFRSYM    DATA     BYTE      IPH
      000000CDH   SFRSYM    DATA     BYTE      SPSTAT
      000000DDH   SFRSYM    DATA     BYTE      T4T3M
      000000C1H   SFRSYM    DATA     BYTE      WDT_CONTR
      000000E9H   SFRSYM    DATA     BYTE      WTST
      000000DFH   SFRSYM    DATA     BYTE      IP3
      000000F4H   SFRSYM    DATA     BYTE      USBCON
      000000B5H   SFRSYM    DATA     BYTE      IP2
      000000FFH   SFRSYM    DATA     BYTE      RSTCFG
      000000C7H   SFRSYM    DATA     BYTE      IAP_CONTR
      000000F9H   SFRSYM    DATA     BYTE      LINICR
      0000008EH   SFRSYM    DATA     BYTE      AUXR
      000000AFH   SFRSYM    DATA     BYTE      IE2
      00000088H   SFRSYM    DATA     BYTE      TCON
      00000089H   SFRSYM    DATA     BYTE      TMOD
      00000098H   SFRSYM    DATA     BYTE      SCON
      000000F1H   SFRSYM    DATA     BYTE      CANICR
      00000087H   SFRSYM    DATA     BYTE      PCON
      000000BCH   SFRSYM    DATA     BYTE      ADC_CONTR
      000000E7H   SFRSYM    DATA     BYTE      CMPCR2
      000000E6H   SFRSYM    DATA     BYTE      CMPCR1
      000000DEH   SFRSYM    DATA     BYTE      ADCCFG
      000000B8H   SFRSYM    DATA     BYTE      IP
      0000008FH   SFRSYM    DATA     BYTE      INTCLKO
      000000EEH   SFRSYM    DATA     BYTE      IP3H
      000000B6H   SFRSYM    DATA     BYTE      IP2H
      000000A8H   SFRSYM    DATA     BYTE      IE
      000000BBH   SFRSYM    DATA     BYTE      P_SW3
      000000BAH   SFRSYM    DATA     BYTE      P_SW2
      000000A2H   SFRSYM    DATA     BYTE      P_SW1
      000000CEH   SFRSYM    DATA     BYTE      SPCTL
      000000F8H   SFRSYM    DATA     BYTE      P7
      000000A8H.7 SFRSYM    DATA     BIT       EA
      000000E8H   SFRSYM    DATA     BYTE      P6
      000000C8H   SFRSYM    DATA     BYTE      P5
      000000C0H   SFRSYM    DATA     BYTE      P4
      000000B0H   SFRSYM    DATA     BYTE      P3
      000000A0H   SFRSYM    DATA     BYTE      P2
      00000090H   SFRSYM    DATA     BYTE      P1
      00000080H   SFRSYM    DATA     BYTE      P0

      00FF141CH   BLOCK     CODE     ---       LVL=0
      00FF141CH   LINE      CODE     ---       #24
      00FF141CH   LINE      CODE     ---       #26
      00FF141FH   LINE      CODE     ---       #27
      00FF1422H   LINE      CODE     ---       #28
      00FF1425H   LINE      CODE     ---       #33
      00FF1428H   LINE      CODE     ---       #36
      00FF142BH   LINE      CODE     ---       #38
      00FF142DH   LINE      CODE     ---       #40
L251 LINKER/LOCATER V4.66.93.0                                                        05/20/2026  15:29:22  PAGE 16


      00FF142DH   LINE      CODE     ---       #41
      00FF1434H   LINE      CODE     ---       #42
      00FF1434H   LINE      CODE     ---       #44
      00FF143BH   LINE      CODE     ---       #45
      00FF1456H   LINE      CODE     ---       #46
      00FF1464H   LINE      CODE     ---       #47
      00FF146BH   LINE      CODE     ---       #48
      ---         BLOCKEND  ---      ---       LVL=0

      ---         MODULE    ---      ---       USB_CDC_drive
      00FF198AH   PUBLIC    CODE     ---       USB_CDC_GPIO_config
      00FF16DDH   PUBLIC    CODE     ---       USB_CDC_Initialization
      000000D2H   PUBLIC    EDATA    ---       USER_STCISPCMD
      000000D6H   PUBLIC    EDATA    ---       USER_PRODUCTDESC
      000000DAH   PUBLIC    EDATA    ---       USER_DEVICEDESC
      000000D0H   SFRSYM    DATA     BYTE      PSW
      0000009DH   SFRSYM    DATA     BYTE      IRCBAND
      00000097H   SFRSYM    DATA     BYTE      AUXR2
      000000EFH   SFRSYM    DATA     BYTE      AUXINTIF
      000000FDH   SFRSYM    DATA     BYTE      S4CON
      000000ACH   SFRSYM    DATA     BYTE      S3CON
      0000009AH   SFRSYM    DATA     BYTE      S2CON
      000000B7H   SFRSYM    DATA     BYTE      IPH
      000000CDH   SFRSYM    DATA     BYTE      SPSTAT
      000000DDH   SFRSYM    DATA     BYTE      T4T3M
      000000C1H   SFRSYM    DATA     BYTE      WDT_CONTR
      000000DFH   SFRSYM    DATA     BYTE      IP3
      000000F4H   SFRSYM    DATA     BYTE      USBCON
      000000B5H   SFRSYM    DATA     BYTE      IP2
      000000FFH   SFRSYM    DATA     BYTE      RSTCFG
      000000DCH   SFRSYM    DATA     BYTE      USBCLK
      000000C7H   SFRSYM    DATA     BYTE      IAP_CONTR
      000000F9H   SFRSYM    DATA     BYTE      LINICR
      0000008EH   SFRSYM    DATA     BYTE      AUXR
      000000AFH   SFRSYM    DATA     BYTE      IE2
      00000088H   SFRSYM    DATA     BYTE      TCON
      00000089H   SFRSYM    DATA     BYTE      TMOD
      00000098H   SFRSYM    DATA     BYTE      SCON
      000000F1H   SFRSYM    DATA     BYTE      CANICR
      00000087H   SFRSYM    DATA     BYTE      PCON
      000000BCH   SFRSYM    DATA     BYTE      ADC_CONTR
      000000AFH.7 SFRSYM    DATA     BIT       EUSB
      000000E7H   SFRSYM    DATA     BYTE      CMPCR2
      000000E6H   SFRSYM    DATA     BYTE      CMPCR1
      000000DEH   SFRSYM    DATA     BYTE      ADCCFG
      000000B8H   SFRSYM    DATA     BYTE      IP
      0000008FH   SFRSYM    DATA     BYTE      INTCLKO
      000000EEH   SFRSYM    DATA     BYTE      IP3H
      000000B6H   SFRSYM    DATA     BYTE      IP2H
      000000A8H   SFRSYM    DATA     BYTE      IE
      000000BBH   SFRSYM    DATA     BYTE      P_SW3
      000000BAH   SFRSYM    DATA     BYTE      P_SW2
      000000A2H   SFRSYM    DATA     BYTE      P_SW1
      000000CEH   SFRSYM    DATA     BYTE      SPCTL
      000000F8H   SFRSYM    DATA     BYTE      P7
      000000E8H   SFRSYM    DATA     BYTE      P6
      000000C8H   SFRSYM    DATA     BYTE      P5
      000000C0H   SFRSYM    DATA     BYTE      P4
      000000B0H   SFRSYM    DATA     BYTE      P3
      000000A0H   SFRSYM    DATA     BYTE      P2
      000000B1H   SFRSYM    DATA     BYTE      P3M1
      00000090H   SFRSYM    DATA     BYTE      P1
      000000B2H   SFRSYM    DATA     BYTE      P3M0
      00000080H   SFRSYM    DATA     BYTE      P0

L251 LINKER/LOCATER V4.66.93.0                                                        05/20/2026  15:29:22  PAGE 17


      00FF198AH   BLOCK     CODE     ---       LVL=0
      00FF198AH   LINE      CODE     ---       #18
      00FF198AH   LINE      CODE     ---       #20
      00FF1990H   LINE      CODE     ---       #21
      ---         BLOCKEND  ---      ---       LVL=0

      00FF16DDH   BLOCK     CODE     ---       LVL=0
      00FF16DDH   LINE      CODE     ---       #29
      00FF16DDH   LINE      CODE     ---       #32
      00FF16E0H   LINE      CODE     ---       #33
      00FF16EDH   LINE      CODE     ---       #34
      00FF16FBH   LINE      CODE     ---       #35
      00FF16FEH   LINE      CODE     ---       #36
      00FF1701H   LINE      CODE     ---       #38
      00FF1704H   LINE      CODE     ---       #40
      00FF1707H   LINE      CODE     ---       #41
      ---         BLOCKEND  ---      ---       LVL=0
      DR0         REGSYM    ---      DWORD     count
      R15         REGSYM    ---      BYTE      iii

      ---         MODULE    ---      ---       LED_drive
      00FF1970H   PUBLIC    CODE     ---       DIS_LED_GPIO_config
      00FF1991H   PUBLIC    CODE     ---       DIS_LED_ALL_on
      00FF188FH   PUBLIC    CODE     ---       DIS_LED_Disable
      00FF18A6H   PUBLIC    CODE     ---       DIS_LED_Enable
      000000D0H   SFRSYM    DATA     BYTE      PSW
      0000009DH   SFRSYM    DATA     BYTE      IRCBAND
      00000097H   SFRSYM    DATA     BYTE      AUXR2
      000000EFH   SFRSYM    DATA     BYTE      AUXINTIF
      000000FDH   SFRSYM    DATA     BYTE      S4CON
      000000ACH   SFRSYM    DATA     BYTE      S3CON
      0000009AH   SFRSYM    DATA     BYTE      S2CON
      000000B7H   SFRSYM    DATA     BYTE      IPH
      000000CDH   SFRSYM    DATA     BYTE      SPSTAT
      000000DDH   SFRSYM    DATA     BYTE      T4T3M
      000000A0H.1 SFRSYM    DATA     BIT       Range3_LED
      000000C1H   SFRSYM    DATA     BYTE      WDT_CONTR
      000000A0H.2 SFRSYM    DATA     BIT       Range2_LED
      000000A0H.3 SFRSYM    DATA     BIT       Range1_LED
      000000DFH   SFRSYM    DATA     BYTE      IP3
      000000F4H   SFRSYM    DATA     BYTE      USBCON
      000000B5H   SFRSYM    DATA     BYTE      IP2
      000000FFH   SFRSYM    DATA     BYTE      RSTCFG
      000000C7H   SFRSYM    DATA     BYTE      IAP_CONTR
      000000F9H   SFRSYM    DATA     BYTE      LINICR
      0000008EH   SFRSYM    DATA     BYTE      AUXR
      000000AFH   SFRSYM    DATA     BYTE      IE2
      00000088H   SFRSYM    DATA     BYTE      TCON
      00000089H   SFRSYM    DATA     BYTE      TMOD
      00000098H   SFRSYM    DATA     BYTE      SCON
      000000F1H   SFRSYM    DATA     BYTE      CANICR
      00000087H   SFRSYM    DATA     BYTE      PCON
      000000BCH   SFRSYM    DATA     BYTE      ADC_CONTR
      000000E7H   SFRSYM    DATA     BYTE      CMPCR2
      000000E6H   SFRSYM    DATA     BYTE      CMPCR1
      000000DEH   SFRSYM    DATA     BYTE      ADCCFG
      000000B8H   SFRSYM    DATA     BYTE      IP
      0000008FH   SFRSYM    DATA     BYTE      INTCLKO
      000000EEH   SFRSYM    DATA     BYTE      IP3H
      000000B6H   SFRSYM    DATA     BYTE      IP2H
      000000A8H   SFRSYM    DATA     BYTE      IE
      000000BBH   SFRSYM    DATA     BYTE      P_SW3
      000000BAH   SFRSYM    DATA     BYTE      P_SW2
      000000A2H   SFRSYM    DATA     BYTE      P_SW1
      000000CEH   SFRSYM    DATA     BYTE      SPCTL
L251 LINKER/LOCATER V4.66.93.0                                                        05/20/2026  15:29:22  PAGE 18


      000000F8H   SFRSYM    DATA     BYTE      P7
      000000E8H   SFRSYM    DATA     BYTE      P6
      000000C8H   SFRSYM    DATA     BYTE      P5
      000000C0H   SFRSYM    DATA     BYTE      P4
      000000B0H   SFRSYM    DATA     BYTE      P3
      000000A0H   SFRSYM    DATA     BYTE      P2
      000000B1H   SFRSYM    DATA     BYTE      P3M1
      00000090H   SFRSYM    DATA     BYTE      P1
      00000095H   SFRSYM    DATA     BYTE      P2M1
      000000B2H   SFRSYM    DATA     BYTE      P3M0
      00000080H   SFRSYM    DATA     BYTE      P0
      00000096H   SFRSYM    DATA     BYTE      P2M0

      00FF1970H   BLOCK     CODE     ---       LVL=0
      00FF1970H   LINE      CODE     ---       #15
      00FF1970H   LINE      CODE     ---       #17
      00FF1976H   LINE      CODE     ---       #19
      00FF197CH   LINE      CODE     ---       #20
      ---         BLOCKEND  ---      ---       LVL=0

      00FF1991H   BLOCK     CODE     ---       LVL=0
      00FF1991H   LINE      CODE     ---       #42
      00FF1991H   LINE      CODE     ---       #44
      00FF1993H   LINE      CODE     ---       #45
      00FF1995H   LINE      CODE     ---       #46
      00FF1997H   LINE      CODE     ---       #47
      ---         BLOCKEND  ---      ---       LVL=0

      00FF18A6H   BLOCK     CODE     ---       LVL=0
      R7          REGSYM    ---      BYTE      LED_num
      00FF18A6H   LINE      CODE     ---       #68
      00FF18A8H   LINE      CODE     ---       #70
      00FF18B4H   LINE      CODE     ---       #72
      00FF18B7H   LINE      CODE     ---       #73
      00FF18BAH   LINE      CODE     ---       #74
      00FF18BCH   LINE      CODE     ---       #76
      00FF18BCH   LINE      CODE     ---       #77
      ---         BLOCKEND  ---      ---       LVL=0

      00FF188FH   BLOCK     CODE     ---       LVL=0
      R7          REGSYM    ---      BYTE      LED_num
      00FF188FH   LINE      CODE     ---       #85
      00FF1891H   LINE      CODE     ---       #87
      00FF189DH   LINE      CODE     ---       #89
      00FF18A0H   LINE      CODE     ---       #90
      00FF18A3H   LINE      CODE     ---       #91
      00FF18A5H   LINE      CODE     ---       #93
      00FF18A5H   LINE      CODE     ---       #94
      ---         BLOCKEND  ---      ---       LVL=0
      R15         REGSYM    ---      BYTE      LED_num
      R15         REGSYM    ---      BYTE      LED_number
      R14         REGSYM    ---      BYTE      Times
      R13         REGSYM    ---      BYTE      pos
      R15         REGSYM    ---      BYTE      LED_number
      R14         REGSYM    ---      BYTE      Times
      R13         REGSYM    ---      BYTE      pos

      ---         MODULE    ---      ---       KEY_drive
      000000D0H   SFRSYM    DATA     BYTE      PSW
      0000009DH   SFRSYM    DATA     BYTE      IRCBAND
      00000097H   SFRSYM    DATA     BYTE      AUXR2
      000000EFH   SFRSYM    DATA     BYTE      AUXINTIF
      000000FDH   SFRSYM    DATA     BYTE      S4CON
      000000ACH   SFRSYM    DATA     BYTE      S3CON
      0000009AH   SFRSYM    DATA     BYTE      S2CON
L251 LINKER/LOCATER V4.66.93.0                                                        05/20/2026  15:29:22  PAGE 19


      000000B7H   SFRSYM    DATA     BYTE      IPH
      000000CDH   SFRSYM    DATA     BYTE      SPSTAT
      000000DDH   SFRSYM    DATA     BYTE      T4T3M
      000000C1H   SFRSYM    DATA     BYTE      WDT_CONTR
      000000B0H.2 SFRSYM    DATA     BIT       HOME_key
      000000DFH   SFRSYM    DATA     BYTE      IP3
      000000F4H   SFRSYM    DATA     BYTE      USBCON
      000000B5H   SFRSYM    DATA     BYTE      IP2
      000000FFH   SFRSYM    DATA     BYTE      RSTCFG
      000000C7H   SFRSYM    DATA     BYTE      IAP_CONTR
      000000F9H   SFRSYM    DATA     BYTE      LINICR
      0000008EH   SFRSYM    DATA     BYTE      AUXR
      000000AFH   SFRSYM    DATA     BYTE      IE2
      00000088H   SFRSYM    DATA     BYTE      TCON
      00000089H   SFRSYM    DATA     BYTE      TMOD
      00000098H   SFRSYM    DATA     BYTE      SCON
      000000F1H   SFRSYM    DATA     BYTE      CANICR
      00000087H   SFRSYM    DATA     BYTE      PCON
      000000BCH   SFRSYM    DATA     BYTE      ADC_CONTR
      000000E7H   SFRSYM    DATA     BYTE      CMPCR2
      000000E6H   SFRSYM    DATA     BYTE      CMPCR1
      000000DEH   SFRSYM    DATA     BYTE      ADCCFG
      000000B8H   SFRSYM    DATA     BYTE      IP
      0000008FH   SFRSYM    DATA     BYTE      INTCLKO
      000000EEH   SFRSYM    DATA     BYTE      IP3H
      000000B6H   SFRSYM    DATA     BYTE      IP2H
      000000A8H   SFRSYM    DATA     BYTE      IE
      000000BBH   SFRSYM    DATA     BYTE      P_SW3
      000000BAH   SFRSYM    DATA     BYTE      P_SW2
      000000A2H   SFRSYM    DATA     BYTE      P_SW1
      000000CEH   SFRSYM    DATA     BYTE      SPCTL
      000000F8H   SFRSYM    DATA     BYTE      P7
      000000E8H   SFRSYM    DATA     BYTE      P6
      000000C8H   SFRSYM    DATA     BYTE      P5
      000000C0H   SFRSYM    DATA     BYTE      P4
      000000B0H   SFRSYM    DATA     BYTE      P3
      000000A0H   SFRSYM    DATA     BYTE      P2
      000000B1H   SFRSYM    DATA     BYTE      P3M1
      00000090H   SFRSYM    DATA     BYTE      P1
      000000B2H   SFRSYM    DATA     BYTE      P3M0
      00000080H   SFRSYM    DATA     BYTE      P0

      ---         MODULE    ---      ---       SYS_drive
      0000001FH   PUBLIC    EDATA    BYTE      Transmission_mode_flag
      000000D0H   SFRSYM    DATA     BYTE      PSW
      0000009DH   SFRSYM    DATA     BYTE      IRCBAND
      00000097H   SFRSYM    DATA     BYTE      AUXR2
      000000EFH   SFRSYM    DATA     BYTE      AUXINTIF
      000000FDH   SFRSYM    DATA     BYTE      S4CON
      000000ACH   SFRSYM    DATA     BYTE      S3CON
      0000009AH   SFRSYM    DATA     BYTE      S2CON
      000000B7H   SFRSYM    DATA     BYTE      IPH
      000000CDH   SFRSYM    DATA     BYTE      SPSTAT
      000000DDH   SFRSYM    DATA     BYTE      T4T3M
      000000C1H   SFRSYM    DATA     BYTE      WDT_CONTR
      000000DFH   SFRSYM    DATA     BYTE      IP3
      000000F4H   SFRSYM    DATA     BYTE      USBCON
      000000B5H   SFRSYM    DATA     BYTE      IP2
      000000FFH   SFRSYM    DATA     BYTE      RSTCFG
      000000C7H   SFRSYM    DATA     BYTE      IAP_CONTR
      000000F9H   SFRSYM    DATA     BYTE      LINICR
      0000008EH   SFRSYM    DATA     BYTE      AUXR
      000000AFH   SFRSYM    DATA     BYTE      IE2
      00000088H   SFRSYM    DATA     BYTE      TCON
      00000089H   SFRSYM    DATA     BYTE      TMOD
L251 LINKER/LOCATER V4.66.93.0                                                        05/20/2026  15:29:22  PAGE 20


      00000098H   SFRSYM    DATA     BYTE      SCON
      000000F1H   SFRSYM    DATA     BYTE      CANICR
      00000087H   SFRSYM    DATA     BYTE      PCON
      000000BCH   SFRSYM    DATA     BYTE      ADC_CONTR
      000000E7H   SFRSYM    DATA     BYTE      CMPCR2
      000000E6H   SFRSYM    DATA     BYTE      CMPCR1
      000000DEH   SFRSYM    DATA     BYTE      ADCCFG
      000000B8H   SFRSYM    DATA     BYTE      IP
      0000008FH   SFRSYM    DATA     BYTE      INTCLKO
      000000EEH   SFRSYM    DATA     BYTE      IP3H
      000000B6H   SFRSYM    DATA     BYTE      IP2H
      000000A8H   SFRSYM    DATA     BYTE      IE
      000000BBH   SFRSYM    DATA     BYTE      P_SW3
      000000BAH   SFRSYM    DATA     BYTE      P_SW2
      000000A2H   SFRSYM    DATA     BYTE      P_SW1
      000000CEH   SFRSYM    DATA     BYTE      SPCTL
      000000F8H   SFRSYM    DATA     BYTE      P7
      000000E8H   SFRSYM    DATA     BYTE      P6
      000000C8H   SFRSYM    DATA     BYTE      P5
      000000C0H   SFRSYM    DATA     BYTE      P4
      000000B0H   SFRSYM    DATA     BYTE      P3
      000000A0H   SFRSYM    DATA     BYTE      P2
      00000090H   SFRSYM    DATA     BYTE      P1
      00000080H   SFRSYM    DATA     BYTE      P0
      REG=7       REGSYM    ---      ---       array
      R3          REGSYM    ---      BYTE      pos
      DR4         REGSYM    ---      DWORD     Temp_Data
      DR24        REGSYM    ---      LONG      value
      REG=7       REGSYM    ---      ---       result
      R7          REGSYM    ---      BYTE      pos
      REG=6       REGSYM    ---      ---       arr1
      REG=7       REGSYM    ---      ---       arr2
      R10         REGSYM    ---      BYTE      Array_size
      R11         REGSYM    ---      BYTE      pos

      ---         MODULE    ---      ---       COMMON_drive
      000000D0H   SFRSYM    DATA     BYTE      PSW
      0000009DH   SFRSYM    DATA     BYTE      IRCBAND
      00000097H   SFRSYM    DATA     BYTE      AUXR2
      000000EFH   SFRSYM    DATA     BYTE      AUXINTIF
      000000FDH   SFRSYM    DATA     BYTE      S4CON
      000000ACH   SFRSYM    DATA     BYTE      S3CON
      0000009AH   SFRSYM    DATA     BYTE      S2CON
      000000B7H   SFRSYM    DATA     BYTE      IPH
      000000CDH   SFRSYM    DATA     BYTE      SPSTAT
      000000DDH   SFRSYM    DATA     BYTE      T4T3M
      000000C1H   SFRSYM    DATA     BYTE      WDT_CONTR
      000000DFH   SFRSYM    DATA     BYTE      IP3
      000000F4H   SFRSYM    DATA     BYTE      USBCON
      000000B5H   SFRSYM    DATA     BYTE      IP2
      000000FFH   SFRSYM    DATA     BYTE      RSTCFG
      000000C7H   SFRSYM    DATA     BYTE      IAP_CONTR
      000000F9H   SFRSYM    DATA     BYTE      LINICR
      0000008EH   SFRSYM    DATA     BYTE      AUXR
      000000AFH   SFRSYM    DATA     BYTE      IE2
      00000088H   SFRSYM    DATA     BYTE      TCON
      00000089H   SFRSYM    DATA     BYTE      TMOD
      00000098H   SFRSYM    DATA     BYTE      SCON
      000000F1H   SFRSYM    DATA     BYTE      CANICR
      00000087H   SFRSYM    DATA     BYTE      PCON
      000000BCH   SFRSYM    DATA     BYTE      ADC_CONTR
      000000E7H   SFRSYM    DATA     BYTE      CMPCR2
      000000E6H   SFRSYM    DATA     BYTE      CMPCR1
      000000DEH   SFRSYM    DATA     BYTE      ADCCFG
      000000B8H   SFRSYM    DATA     BYTE      IP
L251 LINKER/LOCATER V4.66.93.0                                                        05/20/2026  15:29:22  PAGE 21


      0000008FH   SFRSYM    DATA     BYTE      INTCLKO
      000000EEH   SFRSYM    DATA     BYTE      IP3H
      000000B6H   SFRSYM    DATA     BYTE      IP2H
      000000A8H   SFRSYM    DATA     BYTE      IE
      000000BBH   SFRSYM    DATA     BYTE      P_SW3
      000000BAH   SFRSYM    DATA     BYTE      P_SW2
      000000A2H   SFRSYM    DATA     BYTE      P_SW1
      000000CEH   SFRSYM    DATA     BYTE      SPCTL
      000000F8H   SFRSYM    DATA     BYTE      P7
      000000E8H   SFRSYM    DATA     BYTE      P6
      000000C8H   SFRSYM    DATA     BYTE      P5
      000000C0H   SFRSYM    DATA     BYTE      P4
      000000B0H   SFRSYM    DATA     BYTE      P3
      000000A0H   SFRSYM    DATA     BYTE      P2
      00000090H   SFRSYM    DATA     BYTE      P1
      00000080H   SFRSYM    DATA     BYTE      P0

      ---         MODULE    ---      ---       DS135_Tur_drive
      00FF0EB6H   PUBLIC    CODE     ---       Tur_Read
      00FF1646H   PUBLIC    CODE     ---       Tur_Init
      000000B5H   PUBLIC    EDATA    ---       dat
      000000C9H   PUBLIC    EDATA    FLOAT     adc_vol
      000000CDH   PUBLIC    EDATA    FLOAT     ref_vol
      000000D0H   SFRSYM    DATA     BYTE      PSW
      0000009DH   SFRSYM    DATA     BYTE      IRCBAND
      00000097H   SFRSYM    DATA     BYTE      AUXR2
      000000EFH   SFRSYM    DATA     BYTE      AUXINTIF
      000000FDH   SFRSYM    DATA     BYTE      S4CON
      000000ACH   SFRSYM    DATA     BYTE      S3CON
      0000009AH   SFRSYM    DATA     BYTE      S2CON
      000000B7H   SFRSYM    DATA     BYTE      IPH
      000000CDH   SFRSYM    DATA     BYTE      SPSTAT
      000000DDH   SFRSYM    DATA     BYTE      T4T3M
      000000C1H   SFRSYM    DATA     BYTE      WDT_CONTR
      000000DFH   SFRSYM    DATA     BYTE      IP3
      000000F4H   SFRSYM    DATA     BYTE      USBCON
      000000B5H   SFRSYM    DATA     BYTE      IP2
      000000FFH   SFRSYM    DATA     BYTE      RSTCFG
      00000090H.1 SFRSYM    DATA     BIT       Tr
      000000C7H   SFRSYM    DATA     BYTE      IAP_CONTR
      000000F9H   SFRSYM    DATA     BYTE      LINICR
      0000008EH   SFRSYM    DATA     BYTE      AUXR
      000000AFH   SFRSYM    DATA     BYTE      IE2
      00000088H   SFRSYM    DATA     BYTE      TCON
      00000089H   SFRSYM    DATA     BYTE      TMOD
      00000098H   SFRSYM    DATA     BYTE      SCON
      000000F1H   SFRSYM    DATA     BYTE      CANICR
      00000087H   SFRSYM    DATA     BYTE      PCON
      000000BCH   SFRSYM    DATA     BYTE      ADC_CONTR
      000000E7H   SFRSYM    DATA     BYTE      CMPCR2
      000000E6H   SFRSYM    DATA     BYTE      CMPCR1
      000000DEH   SFRSYM    DATA     BYTE      ADCCFG
      000000B8H   SFRSYM    DATA     BYTE      IP
      0000008FH   SFRSYM    DATA     BYTE      INTCLKO
      000000EEH   SFRSYM    DATA     BYTE      IP3H
      000000B6H   SFRSYM    DATA     BYTE      IP2H
      000000A8H   SFRSYM    DATA     BYTE      IE
      000000BBH   SFRSYM    DATA     BYTE      P_SW3
      000000BAH   SFRSYM    DATA     BYTE      P_SW2
      000000A2H   SFRSYM    DATA     BYTE      P_SW1
      000000CEH   SFRSYM    DATA     BYTE      SPCTL
      000000F8H   SFRSYM    DATA     BYTE      P7
      000000E8H   SFRSYM    DATA     BYTE      P6
      000000C8H   SFRSYM    DATA     BYTE      P5
      000000C0H   SFRSYM    DATA     BYTE      P4
L251 LINKER/LOCATER V4.66.93.0                                                        05/20/2026  15:29:22  PAGE 22


      000000B0H   SFRSYM    DATA     BYTE      P3
      000000A0H   SFRSYM    DATA     BYTE      P2
      00000090H   SFRSYM    DATA     BYTE      P1
      00000080H   SFRSYM    DATA     BYTE      P0
      00000091H   SFRSYM    DATA     BYTE      P1M1
      00000092H   SFRSYM    DATA     BYTE      P1M0
      00FF154CH   SYMBOL    CODE     ---       Avg_Filter

      00FF1646H   BLOCK     CODE     ---       LVL=0
      0000008DH   SYMBOL    EDATA    ---       ADC_InitSruct
      00FF1646H   LINE      CODE     ---       #23
      00FF1646H   LINE      CODE     ---       #24
      00FF1646H   LINE      CODE     ---       #27
      00FF164CH   LINE      CODE     ---       #28
      00FF1652H   LINE      CODE     ---       #30
      00FF1654H   LINE      CODE     ---       #32
      00FF165AH   LINE      CODE     ---       #33
      00FF1660H   LINE      CODE     ---       #34
      00FF1665H   LINE      CODE     ---       #35
      00FF1669H   LINE      CODE     ---       #36
      00FF166FH   LINE      CODE     ---       #38
      00FF1676H   LINE      CODE     ---       #39
      ---         BLOCKEND  ---      ---       LVL=0

      00FF0EB6H   BLOCK     CODE     ---       LVL=0
      00FF0EB8H   BLOCK     CODE     NEAR LAB  LVL=1
      000000D1H   SYMBOL    EDATA    BYTE      first_entry
      WR4         REGSYM    ---      WORD      adc_val
      DR12        REGSYM    ---      FLOAT     tur_val
      ---         BLOCKEND  ---      ---       LVL=1
      00FF0EB6H   LINE      CODE     ---       #42
      00FF0EB8H   LINE      CODE     ---       #43
      00FF0EB8H   LINE      CODE     ---       #45
      00FF0EB8H   LINE      CODE     ---       #47
      00FF0EBEH   LINE      CODE     ---       #51
      00FF0EC4H   LINE      CODE     ---       #52
      00FF0EE2H   LINE      CODE     ---       #53
      00FF0EE9H   LINE      CODE     ---       #54
      00FF0EF4H   LINE      CODE     ---       #55
      00FF0F10H   LINE      CODE     ---       #56
      00FF0F1FH   LINE      CODE     ---       #57
      00FF0F3CH   LINE      CODE     ---       #60
      00FF0F3EH   LINE      CODE     ---       #61
      ---         BLOCKEND  ---      ---       LVL=0

      00FF154CH   BLOCK     CODE     ---       LVL=0
      DR28        REGSYM    ---      FLOAT     in_data
      00FF154EH   BLOCK     CODE     NEAR LAB  LVL=1
      DR4         REGSYM    ---      FLOAT     sum_data
      WR26        REGSYM    ---      INT       i
      ---         BLOCKEND  ---      ---       LVL=1
      00FF154CH   LINE      CODE     ---       #65
      00FF154EH   LINE      CODE     ---       #66
      00FF154EH   LINE      CODE     ---       #67
      00FF1550H   LINE      CODE     ---       #68
      00FF1552H   LINE      CODE     ---       #70
      00FF1552H   LINE      CODE     ---       #71
      00FF1568H   LINE      CODE     ---       #72
      00FF1573H   LINE      CODE     ---       #73
      00FF157BH   LINE      CODE     ---       #74
      00FF157FH   LINE      CODE     ---       #75
      00FF1586H   LINE      CODE     ---       #76
      ---         BLOCKEND  ---      ---       LVL=0

      ---         MODULE    ---      ---       STC32G_Delay
L251 LINKER/LOCATER V4.66.93.0                                                        05/20/2026  15:29:22  PAGE 23


      00FF185FH   PUBLIC    CODE     ---       delay_ms
      00FF18BDH   PUBLIC    CODE     ---       delay_us
      000000D0H   SFRSYM    DATA     BYTE      PSW
      0000009DH   SFRSYM    DATA     BYTE      IRCBAND
      00000097H   SFRSYM    DATA     BYTE      AUXR2
      000000EFH   SFRSYM    DATA     BYTE      AUXINTIF
      000000FDH   SFRSYM    DATA     BYTE      S4CON
      000000ACH   SFRSYM    DATA     BYTE      S3CON
      0000009AH   SFRSYM    DATA     BYTE      S2CON
      000000B7H   SFRSYM    DATA     BYTE      IPH
      000000CDH   SFRSYM    DATA     BYTE      SPSTAT
      000000DDH   SFRSYM    DATA     BYTE      T4T3M
      000000C1H   SFRSYM    DATA     BYTE      WDT_CONTR
      000000DFH   SFRSYM    DATA     BYTE      IP3
      000000F4H   SFRSYM    DATA     BYTE      USBCON
      000000B5H   SFRSYM    DATA     BYTE      IP2
      000000FFH   SFRSYM    DATA     BYTE      RSTCFG
      000000C7H   SFRSYM    DATA     BYTE      IAP_CONTR
      000000F9H   SFRSYM    DATA     BYTE      LINICR
      0000008EH   SFRSYM    DATA     BYTE      AUXR
      000000AFH   SFRSYM    DATA     BYTE      IE2
      00000088H   SFRSYM    DATA     BYTE      TCON
      00000089H   SFRSYM    DATA     BYTE      TMOD
      00000098H   SFRSYM    DATA     BYTE      SCON
      000000F1H   SFRSYM    DATA     BYTE      CANICR
      00000087H   SFRSYM    DATA     BYTE      PCON
      000000BCH   SFRSYM    DATA     BYTE      ADC_CONTR
      000000E7H   SFRSYM    DATA     BYTE      CMPCR2
      000000E6H   SFRSYM    DATA     BYTE      CMPCR1
      000000DEH   SFRSYM    DATA     BYTE      ADCCFG
      000000B8H   SFRSYM    DATA     BYTE      IP
      0000008FH   SFRSYM    DATA     BYTE      INTCLKO
      000000EEH   SFRSYM    DATA     BYTE      IP3H
      000000B6H   SFRSYM    DATA     BYTE      IP2H
      000000A8H   SFRSYM    DATA     BYTE      IE
      000000BBH   SFRSYM    DATA     BYTE      P_SW3
      000000BAH   SFRSYM    DATA     BYTE      P_SW2
      000000A2H   SFRSYM    DATA     BYTE      P_SW1
      000000CEH   SFRSYM    DATA     BYTE      SPCTL
      000000F8H   SFRSYM    DATA     BYTE      P7
      000000E8H   SFRSYM    DATA     BYTE      P6
      000000C8H   SFRSYM    DATA     BYTE      P5
      000000C0H   SFRSYM    DATA     BYTE      P4
      000000B0H   SFRSYM    DATA     BYTE      P3
      000000A0H   SFRSYM    DATA     BYTE      P2
      00000090H   SFRSYM    DATA     BYTE      P1
      00000080H   SFRSYM    DATA     BYTE      P0

      00FF18BDH   BLOCK     CODE     ---       LVL=0
      WR4         REGSYM    ---      WORD      us
      00FF18BFH   BLOCK     CODE     NEAR LAB  LVL=1
      WR6         REGSYM    ---      WORD      i
      ---         BLOCKEND  ---      ---       LVL=1
      00FF18BDH   LINE      CODE     ---       #12
      00FF18BFH   LINE      CODE     ---       #13
      00FF18BFH   LINE      CODE     ---       #15
      00FF18BFH   LINE      CODE     ---       #16
      00FF18C3H   LINE      CODE     ---       #17
      00FF18CBH   LINE      CODE     ---       #18
      00FF18D3H   LINE      CODE     ---       #19
      ---         BLOCKEND  ---      ---       LVL=0

      00FF185FH   BLOCK     CODE     ---       LVL=0
      WR14        REGSYM    ---      WORD      ms
      00FF185FH   LINE      CODE     ---       #30
L251 LINKER/LOCATER V4.66.93.0                                                        05/20/2026  15:29:22  PAGE 24


      00FF1863H   LINE      CODE     ---       #32
      00FF1865H   LINE      CODE     ---       #34
      00FF186CH   LINE      CODE     ---       #35
      00FF1874H   LINE      CODE     ---       #36
      ---         BLOCKEND  ---      ---       LVL=0

      ---         MODULE    ---      ---       STC32G_GPIO
      00000094H   SFRSYM    DATA     BYTE      P0M0
      000000D0H   SFRSYM    DATA     BYTE      PSW
      0000009DH   SFRSYM    DATA     BYTE      IRCBAND
      00000097H   SFRSYM    DATA     BYTE      AUXR2
      000000EFH   SFRSYM    DATA     BYTE      AUXINTIF
      000000FDH   SFRSYM    DATA     BYTE      S4CON
      000000ACH   SFRSYM    DATA     BYTE      S3CON
      0000009AH   SFRSYM    DATA     BYTE      S2CON
      000000B7H   SFRSYM    DATA     BYTE      IPH
      000000CDH   SFRSYM    DATA     BYTE      SPSTAT
      000000DDH   SFRSYM    DATA     BYTE      T4T3M
      000000C1H   SFRSYM    DATA     BYTE      WDT_CONTR
      000000DFH   SFRSYM    DATA     BYTE      IP3
      000000F4H   SFRSYM    DATA     BYTE      USBCON
      000000B5H   SFRSYM    DATA     BYTE      IP2
      000000FFH   SFRSYM    DATA     BYTE      RSTCFG
      000000C7H   SFRSYM    DATA     BYTE      IAP_CONTR
      000000F9H   SFRSYM    DATA     BYTE      LINICR
      0000008EH   SFRSYM    DATA     BYTE      AUXR
      000000AFH   SFRSYM    DATA     BYTE      IE2
      00000088H   SFRSYM    DATA     BYTE      TCON
      00000089H   SFRSYM    DATA     BYTE      TMOD
      00000098H   SFRSYM    DATA     BYTE      SCON
      000000F1H   SFRSYM    DATA     BYTE      CANICR
      00000087H   SFRSYM    DATA     BYTE      PCON
      000000BCH   SFRSYM    DATA     BYTE      ADC_CONTR
      000000E7H   SFRSYM    DATA     BYTE      CMPCR2
      000000E6H   SFRSYM    DATA     BYTE      CMPCR1
      000000DEH   SFRSYM    DATA     BYTE      ADCCFG
      000000B8H   SFRSYM    DATA     BYTE      IP
      0000008FH   SFRSYM    DATA     BYTE      INTCLKO
      000000EEH   SFRSYM    DATA     BYTE      IP3H
      000000B6H   SFRSYM    DATA     BYTE      IP2H
      000000A8H   SFRSYM    DATA     BYTE      IE
      000000BBH   SFRSYM    DATA     BYTE      P_SW3
      000000BAH   SFRSYM    DATA     BYTE      P_SW2
      000000A2H   SFRSYM    DATA     BYTE      P_SW1
      000000CEH   SFRSYM    DATA     BYTE      SPCTL
      000000F8H   SFRSYM    DATA     BYTE      P7
      000000E1H   SFRSYM    DATA     BYTE      P7M1
      000000E8H   SFRSYM    DATA     BYTE      P6
      000000C8H   SFRSYM    DATA     BYTE      P5
      000000CBH   SFRSYM    DATA     BYTE      P6M1
      000000E2H   SFRSYM    DATA     BYTE      P7M0
      000000C0H   SFRSYM    DATA     BYTE      P4
      000000C9H   SFRSYM    DATA     BYTE      P5M1
      000000CCH   SFRSYM    DATA     BYTE      P6M0
      000000B0H   SFRSYM    DATA     BYTE      P3
      000000B3H   SFRSYM    DATA     BYTE      P4M1
      000000CAH   SFRSYM    DATA     BYTE      P5M0
      000000A0H   SFRSYM    DATA     BYTE      P2
      000000B1H   SFRSYM    DATA     BYTE      P3M1
      000000B4H   SFRSYM    DATA     BYTE      P4M0
      00000090H   SFRSYM    DATA     BYTE      P1
      00000095H   SFRSYM    DATA     BYTE      P2M1
      000000B2H   SFRSYM    DATA     BYTE      P3M0
      00000080H   SFRSYM    DATA     BYTE      P0
      00000091H   SFRSYM    DATA     BYTE      P1M1
L251 LINKER/LOCATER V4.66.93.0                                                        05/20/2026  15:29:22  PAGE 25


      00000096H   SFRSYM    DATA     BYTE      P2M0
      00000092H   SFRSYM    DATA     BYTE      P1M0
      00000093H   SFRSYM    DATA     BYTE      P0M1
      R10         REGSYM    ---      BYTE      GPIO
      REG=0       REGSYM    ---      ---       GPIOx

      ---         MODULE    ---      ---       usb
      00FF1927H   PUBLIC    CODE     ---       usb_setup_in
      00FF1938H   PUBLIC    CODE     ---       usb_setup_out
      00FF1249H   PUBLIC    CODE     ---       usb_ctrl_in
      00FF146DH   PUBLIC    CODE     ---       usb_ctrl_out
      00FF00CAH   PUBLIC    CODE     ---       usb_suspend
      00FF18EAH   PUBLIC    CODE     ---       usb_bulk_intr_in
      00FF199EH   PUBLIC    CODE     ---       usb_resume
      00FF11DCH   PUBLIC    CODE     ---       usb_IN
      00FF160CH   PUBLIC    CODE     ---       usb_read_fifo?_
      00FF1504H   PUBLIC    CODE     ---       usb_reset
      00FF0FCBH   PUBLIC    CODE     ---       USB_SendData
      00FF0F41H   PUBLIC    CODE     ---       usb_setup
      00FF1733H   PUBLIC    CODE     ---       usb_write_fifo?_
      00FF1054H   PUBLIC    CODE     ---       usb_init
      00FF1946H   PUBLIC    CODE     ---       usb_setup_stall
      00FF197DH   PUBLIC    CODE     ---       usb_setup_status
      00FF18FFH   PUBLIC    CODE     ---       usb_read_reg
      00FF16B0H   PUBLIC    CODE     ---       usb_in_ep1
      00FF1708H   PUBLIC    CODE     ---       usb_in_ep2
      00FF0003H   PUBLIC    CODE     ---       usb_out_ep1
      00FF1914H   PUBLIC    CODE     ---       usb_write_reg
      00FF115CH   PUBLIC    CODE     ---       usb_isr
      00000008H   PUBLIC    EDATA    ---       Setup
      00000010H   PUBLIC    EDATA    BYTE      OutNumber
      00000012H   PUBLIC    EDATA    BYTE      DeviceState
      00000013H   PUBLIC    EDATA    ---       Ep0State
      0000001AH   PUBLIC    EDATA    BYTE      InEpState
      0000001BH   PUBLIC    EDATA    BYTE      OutEpState
      00000020H.0 PUBLIC    BIT      BIT       bUsbOutReady
      00000020H.1 PUBLIC    BIT      BIT       bUsbFeatureReady
      00000020H.2 PUBLIC    BIT      BIT       bUsbInBusy
      00010000H   PUBLIC    XDATA    ---       UsbInBuffer
      00010040H   PUBLIC    XDATA    ---       UsbOutBuffer
      00010080H   PUBLIC    XDATA    ---       UsbFeatureBuffer
      000000D0H   SFRSYM    DATA     BYTE      PSW
      0000009DH   SFRSYM    DATA     BYTE      IRCBAND
      00000097H   SFRSYM    DATA     BYTE      AUXR2
      000000EFH   SFRSYM    DATA     BYTE      AUXINTIF
      000000FDH   SFRSYM    DATA     BYTE      S4CON
      000000ACH   SFRSYM    DATA     BYTE      S3CON
      0000009AH   SFRSYM    DATA     BYTE      S2CON
      000000B7H   SFRSYM    DATA     BYTE      IPH
      000000CDH   SFRSYM    DATA     BYTE      SPSTAT
      000000DDH   SFRSYM    DATA     BYTE      T4T3M
      000000C1H   SFRSYM    DATA     BYTE      WDT_CONTR
      000000DFH   SFRSYM    DATA     BYTE      IP3
      000000F4H   SFRSYM    DATA     BYTE      USBCON
      000000B5H   SFRSYM    DATA     BYTE      IP2
      000000FFH   SFRSYM    DATA     BYTE      RSTCFG
      000000DCH   SFRSYM    DATA     BYTE      USBCLK
      000000ECH   SFRSYM    DATA     BYTE      USBDAT
      000000C7H   SFRSYM    DATA     BYTE      IAP_CONTR
      000000F9H   SFRSYM    DATA     BYTE      LINICR
      000000FCH   SFRSYM    DATA     BYTE      USBADR
      0000008EH   SFRSYM    DATA     BYTE      AUXR
      000000AFH   SFRSYM    DATA     BYTE      IE2
      00000088H   SFRSYM    DATA     BYTE      TCON
      00000098H   SFRSYM    DATA     BYTE      SCON
L251 LINKER/LOCATER V4.66.93.0                                                        05/20/2026  15:29:22  PAGE 26


      000000F1H   SFRSYM    DATA     BYTE      CANICR
      00000087H   SFRSYM    DATA     BYTE      PCON
      000000BCH   SFRSYM    DATA     BYTE      ADC_CONTR
      000000AFH.7 SFRSYM    DATA     BIT       EUSB
      000000E7H   SFRSYM    DATA     BYTE      CMPCR2
      000000E6H   SFRSYM    DATA     BYTE      CMPCR1
      000000B8H   SFRSYM    DATA     BYTE      IP
      0000008FH   SFRSYM    DATA     BYTE      INTCLKO
      000000EEH   SFRSYM    DATA     BYTE      IP3H
      000000B6H   SFRSYM    DATA     BYTE      IP2H
      000000A8H   SFRSYM    DATA     BYTE      IE
      000000BBH   SFRSYM    DATA     BYTE      P_SW3
      000000BAH   SFRSYM    DATA     BYTE      P_SW2
      000000A2H   SFRSYM    DATA     BYTE      P_SW1
      000000CEH   SFRSYM    DATA     BYTE      SPCTL
      000000F8H   SFRSYM    DATA     BYTE      P7
      000000E8H   SFRSYM    DATA     BYTE      P6
      000000C8H   SFRSYM    DATA     BYTE      P5
      000000C0H   SFRSYM    DATA     BYTE      P4
      000000B0H   SFRSYM    DATA     BYTE      P3
      000000A0H   SFRSYM    DATA     BYTE      P2
      000000B1H   SFRSYM    DATA     BYTE      P3M1
      00000090H   SFRSYM    DATA     BYTE      P1
      000000B2H   SFRSYM    DATA     BYTE      P3M0
      00000080H   SFRSYM    DATA     BYTE      P0

      ---         MODULE    ---      ---       usb_req_class
      00FF18D4H   PUBLIC    CODE     ---       usb_set_ctrl_line_state
      00FF1784H   PUBLIC    CODE     ---       usb_get_line_coding
      00FF17AAH   PUBLIC    CODE     ---       usb_set_line_coding
      00FF1812H   PUBLIC    CODE     ---       usb_req_class
      000000DEH   PUBLIC    EDATA    ---       LineCoding
      000000D0H   SFRSYM    DATA     BYTE      PSW
      0000009DH   SFRSYM    DATA     BYTE      IRCBAND
      00000097H   SFRSYM    DATA     BYTE      AUXR2
      000000EFH   SFRSYM    DATA     BYTE      AUXINTIF
      000000FDH   SFRSYM    DATA     BYTE      S4CON
      000000ACH   SFRSYM    DATA     BYTE      S3CON
      0000009AH   SFRSYM    DATA     BYTE      S2CON
      000000B7H   SFRSYM    DATA     BYTE      IPH
      000000CDH   SFRSYM    DATA     BYTE      SPSTAT
      000000DDH   SFRSYM    DATA     BYTE      T4T3M
      000000C1H   SFRSYM    DATA     BYTE      WDT_CONTR
      000000DFH   SFRSYM    DATA     BYTE      IP3
      000000F4H   SFRSYM    DATA     BYTE      USBCON
      000000B5H   SFRSYM    DATA     BYTE      IP2
      000000FFH   SFRSYM    DATA     BYTE      RSTCFG
      000000F9H   SFRSYM    DATA     BYTE      LINICR
      0000008EH   SFRSYM    DATA     BYTE      AUXR
      000000AFH   SFRSYM    DATA     BYTE      IE2
      00000088H   SFRSYM    DATA     BYTE      TCON
      00000098H   SFRSYM    DATA     BYTE      SCON
      000000F1H   SFRSYM    DATA     BYTE      CANICR
      00000087H   SFRSYM    DATA     BYTE      PCON
      000000BCH   SFRSYM    DATA     BYTE      ADC_CONTR
      000000E7H   SFRSYM    DATA     BYTE      CMPCR2
      000000E6H   SFRSYM    DATA     BYTE      CMPCR1
      000000B8H   SFRSYM    DATA     BYTE      IP
      0000008FH   SFRSYM    DATA     BYTE      INTCLKO
      000000EEH   SFRSYM    DATA     BYTE      IP3H
      000000B6H   SFRSYM    DATA     BYTE      IP2H
      000000A8H   SFRSYM    DATA     BYTE      IE
      000000BBH   SFRSYM    DATA     BYTE      P_SW3
      000000BAH   SFRSYM    DATA     BYTE      P_SW2
      000000A2H   SFRSYM    DATA     BYTE      P_SW1
L251 LINKER/LOCATER V4.66.93.0                                                        05/20/2026  15:29:22  PAGE 27


      000000CEH   SFRSYM    DATA     BYTE      SPCTL
      000000F8H   SFRSYM    DATA     BYTE      P7
      000000E8H   SFRSYM    DATA     BYTE      P6
      000000C8H   SFRSYM    DATA     BYTE      P5
      000000C0H   SFRSYM    DATA     BYTE      P4
      000000B0H   SFRSYM    DATA     BYTE      P3
      000000A0H   SFRSYM    DATA     BYTE      P2
      00000090H   SFRSYM    DATA     BYTE      P1
      00000080H   SFRSYM    DATA     BYTE      P0

      ---         MODULE    ---      ---       usb_req_std
      00FF15CEH   PUBLIC    CODE     ---       usb_get_interface
      00FF0C40H   PUBLIC    CODE     ---       usb_clear_feature
      00FF175CH   PUBLIC    CODE     ---       usb_set_interface
      00FF0CDFH   PUBLIC    CODE     ---       usb_get_descriptor
      00FF00C7H   PUBLIC    CODE     ---       usb_set_descriptor
      00FF136CH   PUBLIC    CODE     ---       usb_req_std
      00FF1998H   PUBLIC    CODE     ---       usb_synch_frame
      00FF14BAH   PUBLIC    CODE     ---       usb_set_address
      00FF0E1DH   PUBLIC    CODE     ---       usb_set_feature
      00FF13C8H   PUBLIC    CODE     ---       usb_get_configuration
      00FF0B9BH   PUBLIC    CODE     ---       usb_set_configuration
      00FF0A98H   PUBLIC    CODE     ---       usb_get_status
      000000D0H   SFRSYM    DATA     BYTE      PSW
      0000009DH   SFRSYM    DATA     BYTE      IRCBAND
      00000097H   SFRSYM    DATA     BYTE      AUXR2
      000000EFH   SFRSYM    DATA     BYTE      AUXINTIF
      000000FDH   SFRSYM    DATA     BYTE      S4CON
      000000ACH   SFRSYM    DATA     BYTE      S3CON
      0000009AH   SFRSYM    DATA     BYTE      S2CON
      000000B7H   SFRSYM    DATA     BYTE      IPH
      000000CDH   SFRSYM    DATA     BYTE      SPSTAT
      000000DDH   SFRSYM    DATA     BYTE      T4T3M
      000000C1H   SFRSYM    DATA     BYTE      WDT_CONTR
      000000DFH   SFRSYM    DATA     BYTE      IP3
      000000F4H   SFRSYM    DATA     BYTE      USBCON
      000000B5H   SFRSYM    DATA     BYTE      IP2
      000000FFH   SFRSYM    DATA     BYTE      RSTCFG
      000000F9H   SFRSYM    DATA     BYTE      LINICR
      0000008EH   SFRSYM    DATA     BYTE      AUXR
      000000AFH   SFRSYM    DATA     BYTE      IE2
      00000088H   SFRSYM    DATA     BYTE      TCON
      00000098H   SFRSYM    DATA     BYTE      SCON
      000000F1H   SFRSYM    DATA     BYTE      CANICR
      00000087H   SFRSYM    DATA     BYTE      PCON
      000000BCH   SFRSYM    DATA     BYTE      ADC_CONTR
      000000E7H   SFRSYM    DATA     BYTE      CMPCR2
      000000E6H   SFRSYM    DATA     BYTE      CMPCR1
      000000B8H   SFRSYM    DATA     BYTE      IP
      0000008FH   SFRSYM    DATA     BYTE      INTCLKO
      000000EEH   SFRSYM    DATA     BYTE      IP3H
      000000B6H   SFRSYM    DATA     BYTE      IP2H
      000000A8H   SFRSYM    DATA     BYTE      IE
      000000BBH   SFRSYM    DATA     BYTE      P_SW3
      000000BAH   SFRSYM    DATA     BYTE      P_SW2
      000000A2H   SFRSYM    DATA     BYTE      P_SW1
      000000CEH   SFRSYM    DATA     BYTE      SPCTL
      000000F8H   SFRSYM    DATA     BYTE      P7
      000000E8H   SFRSYM    DATA     BYTE      P6
      000000C8H   SFRSYM    DATA     BYTE      P5
      000000C0H   SFRSYM    DATA     BYTE      P4
      000000B0H   SFRSYM    DATA     BYTE      P3
      000000A0H   SFRSYM    DATA     BYTE      P2
      00000090H   SFRSYM    DATA     BYTE      P1
      00000080H   SFRSYM    DATA     BYTE      P0
L251 LINKER/LOCATER V4.66.93.0                                                        05/20/2026  15:29:22  PAGE 28



      ---         MODULE    ---      ---       usb_req_vendor
      00FF199BH   PUBLIC    CODE     ---       usb_req_vendor
      000000D0H   SFRSYM    DATA     BYTE      PSW
      0000009DH   SFRSYM    DATA     BYTE      IRCBAND
      00000097H   SFRSYM    DATA     BYTE      AUXR2
      000000EFH   SFRSYM    DATA     BYTE      AUXINTIF
      000000FDH   SFRSYM    DATA     BYTE      S4CON
      000000ACH   SFRSYM    DATA     BYTE      S3CON
      0000009AH   SFRSYM    DATA     BYTE      S2CON
      000000B7H   SFRSYM    DATA     BYTE      IPH
      000000CDH   SFRSYM    DATA     BYTE      SPSTAT
      000000DDH   SFRSYM    DATA     BYTE      T4T3M
      000000C1H   SFRSYM    DATA     BYTE      WDT_CONTR
      000000DFH   SFRSYM    DATA     BYTE      IP3
      000000F4H   SFRSYM    DATA     BYTE      USBCON
      000000B5H   SFRSYM    DATA     BYTE      IP2
      000000FFH   SFRSYM    DATA     BYTE      RSTCFG
      000000F9H   SFRSYM    DATA     BYTE      LINICR
      0000008EH   SFRSYM    DATA     BYTE      AUXR
      000000AFH   SFRSYM    DATA     BYTE      IE2
      00000088H   SFRSYM    DATA     BYTE      TCON
      00000098H   SFRSYM    DATA     BYTE      SCON
      000000F1H   SFRSYM    DATA     BYTE      CANICR
      00000087H   SFRSYM    DATA     BYTE      PCON
      000000BCH   SFRSYM    DATA     BYTE      ADC_CONTR
      000000E7H   SFRSYM    DATA     BYTE      CMPCR2
      000000E6H   SFRSYM    DATA     BYTE      CMPCR1
      000000B8H   SFRSYM    DATA     BYTE      IP
      0000008FH   SFRSYM    DATA     BYTE      INTCLKO
      000000EEH   SFRSYM    DATA     BYTE      IP3H
      000000B6H   SFRSYM    DATA     BYTE      IP2H
      000000A8H   SFRSYM    DATA     BYTE      IE
      000000BBH   SFRSYM    DATA     BYTE      P_SW3
      000000BAH   SFRSYM    DATA     BYTE      P_SW2
      000000A2H   SFRSYM    DATA     BYTE      P_SW1
      000000CEH   SFRSYM    DATA     BYTE      SPCTL
      000000F8H   SFRSYM    DATA     BYTE      P7
      000000E8H   SFRSYM    DATA     BYTE      P6
      000000C8H   SFRSYM    DATA     BYTE      P5
      000000C0H   SFRSYM    DATA     BYTE      P4
      000000B0H   SFRSYM    DATA     BYTE      P3
      000000A0H   SFRSYM    DATA     BYTE      P2
      00000090H   SFRSYM    DATA     BYTE      P1
      00000080H   SFRSYM    DATA     BYTE      P0

      ---         MODULE    ---      ---       util
      00FF167BH   PUBLIC    CODE     ---       reverse2
      00FF1877H   PUBLIC    CODE     ---       sleep_ms
      00FF17F5H   PUBLIC    CODE     ---       sleep_us
      000000D0H   SFRSYM    DATA     BYTE      PSW
      0000009DH   SFRSYM    DATA     BYTE      IRCBAND
      00000097H   SFRSYM    DATA     BYTE      AUXR2
      000000EFH   SFRSYM    DATA     BYTE      AUXINTIF
      000000FDH   SFRSYM    DATA     BYTE      S4CON
      000000ACH   SFRSYM    DATA     BYTE      S3CON
      0000009AH   SFRSYM    DATA     BYTE      S2CON
      000000B7H   SFRSYM    DATA     BYTE      IPH
      000000CDH   SFRSYM    DATA     BYTE      SPSTAT
      000000DDH   SFRSYM    DATA     BYTE      T4T3M
      000000C1H   SFRSYM    DATA     BYTE      WDT_CONTR
      000000DFH   SFRSYM    DATA     BYTE      IP3
      000000F4H   SFRSYM    DATA     BYTE      USBCON
      000000B5H   SFRSYM    DATA     BYTE      IP2
      000000FFH   SFRSYM    DATA     BYTE      RSTCFG
L251 LINKER/LOCATER V4.66.93.0                                                        05/20/2026  15:29:22  PAGE 29


      000000F9H   SFRSYM    DATA     BYTE      LINICR
      0000008EH   SFRSYM    DATA     BYTE      AUXR
      000000AFH   SFRSYM    DATA     BYTE      IE2
      00000088H   SFRSYM    DATA     BYTE      TCON
      00000098H   SFRSYM    DATA     BYTE      SCON
      000000F1H   SFRSYM    DATA     BYTE      CANICR
      00000087H   SFRSYM    DATA     BYTE      PCON
      000000BCH   SFRSYM    DATA     BYTE      ADC_CONTR
      000000E7H   SFRSYM    DATA     BYTE      CMPCR2
      000000E6H   SFRSYM    DATA     BYTE      CMPCR1
      000000B8H   SFRSYM    DATA     BYTE      IP
      0000008FH   SFRSYM    DATA     BYTE      INTCLKO
      000000EEH   SFRSYM    DATA     BYTE      IP3H
      000000B6H   SFRSYM    DATA     BYTE      IP2H
      000000A8H   SFRSYM    DATA     BYTE      IE
      000000BBH   SFRSYM    DATA     BYTE      P_SW3
      000000BAH   SFRSYM    DATA     BYTE      P_SW2
      000000A2H   SFRSYM    DATA     BYTE      P_SW1
      000000CEH   SFRSYM    DATA     BYTE      SPCTL
      000000F8H   SFRSYM    DATA     BYTE      P7
      000000E8H   SFRSYM    DATA     BYTE      P6
      000000C8H   SFRSYM    DATA     BYTE      P5
      000000C0H   SFRSYM    DATA     BYTE      P4
      000000B0H   SFRSYM    DATA     BYTE      P3
      000000A0H   SFRSYM    DATA     BYTE      P2
      00000090H   SFRSYM    DATA     BYTE      P1
      00000080H   SFRSYM    DATA     BYTE      P0

      ---         MODULE    ---      ---       usb_desc
      00FF10D9H   PUBLIC    CODE     ---       PRODUCTDESC
      00FF10F7H   PUBLIC    CODE     ---       LANGIDDESC
      00FF10FBH   PUBLIC    CODE     ---       DEVICEDESC
      00FF110DH   PUBLIC    CODE     ---       CONFIGDESC
      00FF1150H   PUBLIC    CODE     ---       PACKET0
      00FF1152H   PUBLIC    CODE     ---       PACKET1
      00FF1154H   PUBLIC    CODE     ---       MANUFACTDESC
      000000D0H   SFRSYM    DATA     BYTE      PSW
      0000009DH   SFRSYM    DATA     BYTE      IRCBAND
      00000097H   SFRSYM    DATA     BYTE      AUXR2
      000000EFH   SFRSYM    DATA     BYTE      AUXINTIF
      000000FDH   SFRSYM    DATA     BYTE      S4CON
      000000ACH   SFRSYM    DATA     BYTE      S3CON
      0000009AH   SFRSYM    DATA     BYTE      S2CON
      000000B7H   SFRSYM    DATA     BYTE      IPH
      000000CDH   SFRSYM    DATA     BYTE      SPSTAT
      000000DDH   SFRSYM    DATA     BYTE      T4T3M
      000000C1H   SFRSYM    DATA     BYTE      WDT_CONTR
      000000DFH   SFRSYM    DATA     BYTE      IP3
      000000F4H   SFRSYM    DATA     BYTE      USBCON
      000000B5H   SFRSYM    DATA     BYTE      IP2
      000000FFH   SFRSYM    DATA     BYTE      RSTCFG
      000000F9H   SFRSYM    DATA     BYTE      LINICR
      0000008EH   SFRSYM    DATA     BYTE      AUXR
      000000AFH   SFRSYM    DATA     BYTE      IE2
      00000088H   SFRSYM    DATA     BYTE      TCON
      00000098H   SFRSYM    DATA     BYTE      SCON
      000000F1H   SFRSYM    DATA     BYTE      CANICR
      00000087H   SFRSYM    DATA     BYTE      PCON
      000000BCH   SFRSYM    DATA     BYTE      ADC_CONTR
      000000E7H   SFRSYM    DATA     BYTE      CMPCR2
      000000E6H   SFRSYM    DATA     BYTE      CMPCR1
      000000B8H   SFRSYM    DATA     BYTE      IP
      0000008FH   SFRSYM    DATA     BYTE      INTCLKO
      000000EEH   SFRSYM    DATA     BYTE      IP3H
      000000B6H   SFRSYM    DATA     BYTE      IP2H
L251 LINKER/LOCATER V4.66.93.0                                                        05/20/2026  15:29:22  PAGE 30


      000000A8H   SFRSYM    DATA     BYTE      IE
      000000BBH   SFRSYM    DATA     BYTE      P_SW3
      000000BAH   SFRSYM    DATA     BYTE      P_SW2
      000000A2H   SFRSYM    DATA     BYTE      P_SW1
      000000CEH   SFRSYM    DATA     BYTE      SPCTL
      000000F8H   SFRSYM    DATA     BYTE      P7
      000000E8H   SFRSYM    DATA     BYTE      P6
      000000C8H   SFRSYM    DATA     BYTE      P5
      000000C0H   SFRSYM    DATA     BYTE      P4
      000000B0H   SFRSYM    DATA     BYTE      P3
      000000A0H   SFRSYM    DATA     BYTE      P2
      00000090H   SFRSYM    DATA     BYTE      P1
      00000080H   SFRSYM    DATA     BYTE      P0

      ---         MODULE    ---      ---       STC32G_NVIC
      000000F9H.3 SFRSYM    DATA     BIT       PLINH
      000000D0H   SFRSYM    DATA     BYTE      PSW
      000000B6H.5 SFRSYM    DATA     BIT       PCMPH
      0000009DH   SFRSYM    DATA     BYTE      IRCBAND
      00000097H   SFRSYM    DATA     BYTE      AUXR2
      000000F9H.1 SFRSYM    DATA     BIT       LINIE
      000000F1H.0 SFRSYM    DATA     BIT       PCANL
      000000B7H.4 SFRSYM    DATA     BIT       PSH
      000000EFH   SFRSYM    DATA     BYTE      AUXINTIF
      000000F1H.3 SFRSYM    DATA     BIT       PCANH
      000000FDH   SFRSYM    DATA     BYTE      S4CON
      000000ACH   SFRSYM    DATA     BYTE      S3CON
      0000009AH   SFRSYM    DATA     BYTE      S2CON
      000000B7H   SFRSYM    DATA     BYTE      IPH
      000000B7H.5 SFRSYM    DATA     BIT       PADCH
      000000CDH   SFRSYM    DATA     BYTE      SPSTAT
      000000F1H.1 SFRSYM    DATA     BIT       CANIE
      000000E6H.5 SFRSYM    DATA     BIT       PIE
      000000DDH   SFRSYM    DATA     BYTE      T4T3M
      000000E6H.4 SFRSYM    DATA     BIT       NIE
      000000B8H.2 SFRSYM    DATA     BIT       PX1
      000000B8H.0 SFRSYM    DATA     BIT       PX0
      000000C1H   SFRSYM    DATA     BYTE      WDT_CONTR
      000000DFH.1 SFRSYM    DATA     BIT       PS4
      000000DFH.0 SFRSYM    DATA     BIT       PS3
      000000B5H.0 SFRSYM    DATA     BIT       PS2
      000000B8H.3 SFRSYM    DATA     BIT       PT1
      000000B8H.1 SFRSYM    DATA     BIT       PT0
      0000008FH.6 SFRSYM    DATA     BIT       EX4
      0000008FH.5 SFRSYM    DATA     BIT       EX3
      000000B6H.3 SFRSYM    DATA     BIT       PPWMBH
      0000008FH.4 SFRSYM    DATA     BIT       EX2
      000000B6H.2 SFRSYM    DATA     BIT       PPWMAH
      000000A8H.2 SFRSYM    DATA     BIT       EX1
      000000A8H.0 SFRSYM    DATA     BIT       EX0
      000000AFH.6 SFRSYM    DATA     BIT       ET4
      000000AFH.5 SFRSYM    DATA     BIT       ET3
      000000AFH.4 SFRSYM    DATA     BIT       ES4
      000000DFH   SFRSYM    DATA     BYTE      IP3
      000000F4H   SFRSYM    DATA     BYTE      USBCON
      000000AFH.3 SFRSYM    DATA     BIT       ES3
      000000AFH.2 SFRSYM    DATA     BIT       ET2
      000000B5H   SFRSYM    DATA     BYTE      IP2
      000000FFH   SFRSYM    DATA     BYTE      RSTCFG
      000000A8H.3 SFRSYM    DATA     BIT       ET1
      000000AFH.0 SFRSYM    DATA     BIT       ES2
      000000A8H.1 SFRSYM    DATA     BIT       ET0
      000000C7H   SFRSYM    DATA     BYTE      IAP_CONTR
      000000F9H   SFRSYM    DATA     BYTE      LINICR
      0000008EH   SFRSYM    DATA     BYTE      AUXR
L251 LINKER/LOCATER V4.66.93.0                                                        05/20/2026  15:29:22  PAGE 31


      000000AFH   SFRSYM    DATA     BYTE      IE2
      000000B5H.1 SFRSYM    DATA     BIT       PSPI
      000000DFH.2 SFRSYM    DATA     BIT       PRTC
      00000088H   SFRSYM    DATA     BYTE      TCON
      00000089H   SFRSYM    DATA     BYTE      TMOD
      00000098H   SFRSYM    DATA     BYTE      SCON
      000000AFH.1 SFRSYM    DATA     BIT       ESPI
      000000F1H   SFRSYM    DATA     BYTE      CANICR
      00000087H   SFRSYM    DATA     BYTE      PCON
      000000B5H.5 SFRSYM    DATA     BIT       PCMP
      000000BCH   SFRSYM    DATA     BYTE      ADC_CONTR
      000000E7H   SFRSYM    DATA     BYTE      CMPCR2
      000000E6H   SFRSYM    DATA     BYTE      CMPCR1
      000000B8H.4 SFRSYM    DATA     BIT       PS
      000000B7H.2 SFRSYM    DATA     BIT       PX1H
      000000F1H.4 SFRSYM    DATA     BIT       PCAN2L
      000000B7H.0 SFRSYM    DATA     BIT       PX0H
      000000EEH.1 SFRSYM    DATA     BIT       PS4H
      000000EEH.0 SFRSYM    DATA     BIT       PS3H
      000000B6H.0 SFRSYM    DATA     BIT       PS2H
      000000B7H.3 SFRSYM    DATA     BIT       PT1H
      000000F1H.7 SFRSYM    DATA     BIT       PCAN2H
      000000B7H.1 SFRSYM    DATA     BIT       PT0H
      000000DEH   SFRSYM    DATA     BYTE      ADCCFG
      000000B8H   SFRSYM    DATA     BYTE      IP
      000000B8H.5 SFRSYM    DATA     BIT       PADC
      000000A8H.4 SFRSYM    DATA     BIT       ES
      0000008FH   SFRSYM    DATA     BYTE      INTCLKO
      000000EEH   SFRSYM    DATA     BYTE      IP3H
      000000B6H   SFRSYM    DATA     BYTE      IP2H
      000000F1H.5 SFRSYM    DATA     BIT       CAN2IE
      000000A8H   SFRSYM    DATA     BYTE      IE
      000000A8H.5 SFRSYM    DATA     BIT       EADC
      000000BBH   SFRSYM    DATA     BYTE      P_SW3
      000000BAH   SFRSYM    DATA     BYTE      P_SW2
      000000A2H   SFRSYM    DATA     BYTE      P_SW1
      000000B5H.3 SFRSYM    DATA     BIT       PPWMB
      000000CEH   SFRSYM    DATA     BYTE      SPCTL
      000000B5H.2 SFRSYM    DATA     BIT       PPWMA
      000000F8H   SFRSYM    DATA     BYTE      P7
      000000B6H.1 SFRSYM    DATA     BIT       PSPIH
      000000E8H   SFRSYM    DATA     BYTE      P6
      000000C8H   SFRSYM    DATA     BYTE      P5
      000000C0H   SFRSYM    DATA     BYTE      P4
      000000B0H   SFRSYM    DATA     BYTE      P3
      000000EEH.2 SFRSYM    DATA     BIT       PRTCH
      000000A0H   SFRSYM    DATA     BYTE      P2
      00000090H   SFRSYM    DATA     BYTE      P1
      000000F9H.0 SFRSYM    DATA     BIT       PLINL
      00000080H   SFRSYM    DATA     BYTE      P0
      R7          REGSYM    ---      BYTE      State
      R6          REGSYM    ---      BYTE      Priority
      R7          REGSYM    ---      BYTE      State
      R6          REGSYM    ---      BYTE      Priority
      R7          REGSYM    ---      BYTE      State
      R7          REGSYM    ---      BYTE      State
      R7          REGSYM    ---      BYTE      State
      R7          REGSYM    ---      BYTE      State
      R6          REGSYM    ---      BYTE      Priority
      R7          REGSYM    ---      BYTE      State
      R6          REGSYM    ---      BYTE      Priority
      R7          REGSYM    ---      BYTE      State
      R7          REGSYM    ---      BYTE      State
      R7          REGSYM    ---      BYTE      State
      R7          REGSYM    ---      BYTE      State
L251 LINKER/LOCATER V4.66.93.0                                                        05/20/2026  15:29:22  PAGE 32


      R6          REGSYM    ---      BYTE      Priority
      R7          REGSYM    ---      BYTE      State
      R10         REGSYM    ---      BYTE      Priority
      R3          REGSYM    ---      BYTE      Mode
      R10         REGSYM    ---      BYTE      State
      R2          REGSYM    ---      BYTE      Priority
      R7          REGSYM    ---      BYTE      State
      R6          REGSYM    ---      BYTE      Priority
      R7          REGSYM    ---      BYTE      State
      R6          REGSYM    ---      BYTE      Priority
      R7          REGSYM    ---      BYTE      State
      R6          REGSYM    ---      BYTE      Priority
      R7          REGSYM    ---      BYTE      State
      R6          REGSYM    ---      BYTE      Priority
      R7          REGSYM    ---      BYTE      State
      R6          REGSYM    ---      BYTE      Priority
      R3          REGSYM    ---      BYTE      State
      R10         REGSYM    ---      BYTE      Priority
      R6          REGSYM    ---      BYTE      Channel
      R3          REGSYM    ---      BYTE      State
      R2          REGSYM    ---      BYTE      Priority
      R9          REGSYM    ---      BYTE      State
      R3          REGSYM    ---      BYTE      Priority
      R10         REGSYM    ---      BYTE      Bus_Priority
      R9          REGSYM    ---      BYTE      State
      R3          REGSYM    ---      BYTE      Priority
      R10         REGSYM    ---      BYTE      Bus_Priority
      R9          REGSYM    ---      BYTE      State
      R3          REGSYM    ---      BYTE      Priority
      R10         REGSYM    ---      BYTE      Bus_Priority
      R9          REGSYM    ---      BYTE      State
      R3          REGSYM    ---      BYTE      Priority
      R10         REGSYM    ---      BYTE      Bus_Priority
      R9          REGSYM    ---      BYTE      State
      R3          REGSYM    ---      BYTE      Priority
      R10         REGSYM    ---      BYTE      Bus_Priority
      R9          REGSYM    ---      BYTE      State
      R3          REGSYM    ---      BYTE      Priority
      R10         REGSYM    ---      BYTE      Bus_Priority
      R9          REGSYM    ---      BYTE      State
      R3          REGSYM    ---      BYTE      Priority
      R10         REGSYM    ---      BYTE      Bus_Priority
      R9          REGSYM    ---      BYTE      State
      R3          REGSYM    ---      BYTE      Priority
      R10         REGSYM    ---      BYTE      Bus_Priority
      R9          REGSYM    ---      BYTE      State
      R3          REGSYM    ---      BYTE      Priority
      R10         REGSYM    ---      BYTE      Bus_Priority
      R9          REGSYM    ---      BYTE      State
      R3          REGSYM    ---      BYTE      Priority
      R10         REGSYM    ---      BYTE      Bus_Priority
      R9          REGSYM    ---      BYTE      State
      R3          REGSYM    ---      BYTE      Priority
      R10         REGSYM    ---      BYTE      Bus_Priority
      R9          REGSYM    ---      BYTE      State
      R3          REGSYM    ---      BYTE      Priority
      R10         REGSYM    ---      BYTE      Bus_Priority
      R9          REGSYM    ---      BYTE      State
      R10         REGSYM    ---      BYTE      Priority
      R9          REGSYM    ---      BYTE      State
      R3          REGSYM    ---      BYTE      Priority
      R10         REGSYM    ---      BYTE      Bus_Priority
      R9          REGSYM    ---      BYTE      State
      R3          REGSYM    ---      BYTE      Priority
      R10         REGSYM    ---      BYTE      Bus_Priority
L251 LINKER/LOCATER V4.66.93.0                                                        05/20/2026  15:29:22  PAGE 33


      R11         REGSYM    ---      BYTE      Channel
      R10         REGSYM    ---      BYTE      State
      R6          REGSYM    ---      BYTE      Priority
      R7          REGSYM    ---      BYTE      State
      R6          REGSYM    ---      BYTE      Priority

      ---         MODULE    ---      ---       STC32G_ADC
      00FF130FH   PUBLIC    CODE     ---       ADC_Inilize
      00FF1954H   PUBLIC    CODE     ---       ADC_PowerControl
      00FF12B0H   PUBLIC    CODE     ---       Get_ADCResult
      000000D0H   SFRSYM    DATA     BYTE      PSW
      0000009DH   SFRSYM    DATA     BYTE      IRCBAND
      00000097H   SFRSYM    DATA     BYTE      AUXR2
      000000EFH   SFRSYM    DATA     BYTE      AUXINTIF
      000000FDH   SFRSYM    DATA     BYTE      S4CON
      000000ACH   SFRSYM    DATA     BYTE      S3CON
      0000009AH   SFRSYM    DATA     BYTE      S2CON
      000000B7H   SFRSYM    DATA     BYTE      IPH
      000000CDH   SFRSYM    DATA     BYTE      SPSTAT
      000000BEH   SFRSYM    DATA     BYTE      ADC_RESL
      000000DDH   SFRSYM    DATA     BYTE      T4T3M
      000000C1H   SFRSYM    DATA     BYTE      WDT_CONTR
      000000DEH.5 SFRSYM    DATA     BIT       RESFMT
      000000DFH   SFRSYM    DATA     BYTE      IP3
      000000F4H   SFRSYM    DATA     BYTE      USBCON
      000000B5H   SFRSYM    DATA     BYTE      IP2
      000000FFH   SFRSYM    DATA     BYTE      RSTCFG
      000000BCH.5 SFRSYM    DATA     BIT       ADC_FLAG
      000000C7H   SFRSYM    DATA     BYTE      IAP_CONTR
      000000F9H   SFRSYM    DATA     BYTE      LINICR
      0000008EH   SFRSYM    DATA     BYTE      AUXR
      000000AFH   SFRSYM    DATA     BYTE      IE2
      000000BCH.6 SFRSYM    DATA     BIT       ADC_START
      000000BCH.7 SFRSYM    DATA     BIT       ADC_POWER
      00000088H   SFRSYM    DATA     BYTE      TCON
      00000089H   SFRSYM    DATA     BYTE      TMOD
      00000098H   SFRSYM    DATA     BYTE      SCON
      000000F1H   SFRSYM    DATA     BYTE      CANICR
      00000087H   SFRSYM    DATA     BYTE      PCON
      000000BCH   SFRSYM    DATA     BYTE      ADC_CONTR
      000000E7H   SFRSYM    DATA     BYTE      CMPCR2
      000000E6H   SFRSYM    DATA     BYTE      CMPCR1
      000000DEH   SFRSYM    DATA     BYTE      ADCCFG
      000000B8H   SFRSYM    DATA     BYTE      IP
      0000008FH   SFRSYM    DATA     BYTE      INTCLKO
      000000EEH   SFRSYM    DATA     BYTE      IP3H
      000000B6H   SFRSYM    DATA     BYTE      IP2H
      000000BDH   SFRSYM    DATA     BYTE      ADC_RES
      000000A8H   SFRSYM    DATA     BYTE      IE
      000000BBH   SFRSYM    DATA     BYTE      P_SW3
      000000BAH   SFRSYM    DATA     BYTE      P_SW2
      000000A2H   SFRSYM    DATA     BYTE      P_SW1
      000000CEH   SFRSYM    DATA     BYTE      SPCTL
      000000F8H   SFRSYM    DATA     BYTE      P7
      000000E8H   SFRSYM    DATA     BYTE      P6
      000000C8H   SFRSYM    DATA     BYTE      P5
      000000C0H   SFRSYM    DATA     BYTE      P4
      000000B0H   SFRSYM    DATA     BYTE      P3
      000000A0H   SFRSYM    DATA     BYTE      P2
      00000090H   SFRSYM    DATA     BYTE      P1
      00000080H   SFRSYM    DATA     BYTE      P0

      00FF130FH   BLOCK     CODE     ---       LVL=0
      REG=7       REGSYM    ---      ---       ADCx
      00FF130FH   LINE      CODE     ---       #23
L251 LINKER/LOCATER V4.66.93.0                                                        05/20/2026  15:29:22  PAGE 34


      00FF1311H   LINE      CODE     ---       #25
      00FF131DH   LINE      CODE     ---       #26
      00FF132BH   LINE      CODE     ---       #28
      00FF1336H   LINE      CODE     ---       #29
      00FF1342H   LINE      CODE     ---       #30
      00FF134EH   LINE      CODE     ---       #32
      00FF136AH   LINE      CODE     ---       #33
      00FF136BH   LINE      CODE     ---       #34
      ---         BLOCKEND  ---      ---       LVL=0

      00FF1954H   BLOCK     CODE     ---       LVL=0
      R7          REGSYM    ---      BYTE      pwr
      00FF1954H   LINE      CODE     ---       #44
      00FF1956H   LINE      CODE     ---       #46
      00FF195EH   LINE      CODE     ---       #47
      00FF1961H   LINE      CODE     ---       #48
      ---         BLOCKEND  ---      ---       LVL=0

      00FF12B0H   BLOCK     CODE     ---       LVL=0
      R10         REGSYM    ---      BYTE      channel
      00FF12B2H   BLOCK     CODE     NEAR LAB  LVL=1
      WR8         REGSYM    ---      WORD      adc
      R7          REGSYM    ---      BYTE      i
      ---         BLOCKEND  ---      ---       LVL=1
      00FF12B0H   LINE      CODE     ---       #57
      00FF12B2H   LINE      CODE     ---       #58
      00FF12B2H   LINE      CODE     ---       #62
      00FF12B9H   LINE      CODE     ---       #63
      00FF12BCH   LINE      CODE     ---       #64
      00FF12BFH   LINE      CODE     ---       #66
      00FF12C7H   LINE      CODE     ---       #67
      00FF12CAH   LINE      CODE     ---       #68
      00FF12D4H   LINE      CODE     ---       #70
      00FF12D7H   LINE      CODE     ---       #72
      00FF12DBH   LINE      CODE     ---       #74
      00FF12DEH   LINE      CODE     ---       #75
      00FF12E2H   LINE      CODE     ---       #77
      00FF12EAH   LINE      CODE     ---       #78
      00FF12ECH   LINE      CODE     ---       #81
      00FF12F0H   LINE      CODE     ---       #82
      00FF1303H   LINE      CODE     ---       #83
      00FF1303H   LINE      CODE     ---       #84
      00FF1306H   LINE      CODE     ---       #85
      00FF130AH   LINE      CODE     ---       #87
      00FF130EH   LINE      CODE     ---       #88
      ---         BLOCKEND  ---      ---       LVL=0

      ---         MODULE    ---      ---       ?C?FPADD
      00FF00D4H   PUBLIC    CODE     ---       ?C?FPADD
      00FF00D1H   PUBLIC    CODE     ---       ?C?FPSUB

      ---         MODULE    ---      ---       ?C?FPMUL
      00FF018CH   PUBLIC    CODE     ---       ?C?FPMUL

      ---         MODULE    ---      ---       ?C?FPDIV
      00FF022CH   PUBLIC    CODE     ---       ?C?FPDIV

      ---         MODULE    ---      ---       ?C?FPCMP
      00FF02AFH   PUBLIC    CODE     ---       ?C?FPCMP
      00FF02ADH   PUBLIC    CODE     ---       ?C?FPCMP3

      ---         MODULE    ---      ---       ?C?FCAST
      00FF02FDH   PUBLIC    CODE     NEAR LAB  ?C?FCASTC
      00FF02F8H   PUBLIC    CODE     NEAR LAB  ?C?FCASTI
      00FF02F3H   PUBLIC    CODE     NEAR LAB  ?C?FCASTL
L251 LINKER/LOCATER V4.66.93.0                                                        05/20/2026  15:29:22  PAGE 35



      ---         MODULE    ---      ---       SPRINTF
      000000B5H   PUBLIC    EDATA    ---       ?SPRINTF?BYTE
      00FF0330H   PUBLIC    CODE     NEAR LAB  SPRINTF

      ---         MODULE    ---      ---       VSPRINTF
      00FF0350H   PUBLIC    CODE     NEAR LAB  VSPRINTF

      ---         MODULE    ---      ---       LOG?_
      00FF0398H   PUBLIC    CODE     NEAR LAB  LOG?_

      ---         MODULE    ---      ---       ?C?FPGETOPN
      00FF045DH   PUBLIC    CODE     ---       ?C?FPGETOPN2
      00FF049AH   PUBLIC    CODE     ---       ?C?FPNANRESULT
      00FF04A2H   PUBLIC    CODE     ---       ?C?FPOVERFLOW
      00FF0476H   PUBLIC    CODE     ---       ?C?FPRESULT
      00FF048CH   PUBLIC    CODE     ---       ?C?FPRESULT2
      00FF049FH   PUBLIC    CODE     ---       ?C?FPUNDERFLOW

      ---         MODULE    ---      ---       ?C?PRNFMT
      00FF04DBH   PUBLIC    CODE     ---       ?C?PRNFMT

      ---         MODULE    ---      ---       ?C?FPSERIES
      00FF08EAH   PUBLIC    CODE     ---       ?C?FP2SERIES
      00FF08F3H   PUBLIC    CODE     ---       ?C?FPSERIES

      ---         MODULE    ---      ---       ?C?FPCONVERT
      00FF0925H   PUBLIC    CODE     ---       ?C?FPCONVERT
      00FF09DDH   PUBLIC    CODE     ---       ?C?FPROUND

      ---         MODULE    ---      ---       ?C?FTNPWR
      00FF0A50H   PUBLIC    CODE     ---       ?C?FTNPWR

      ---         MODULE    ---      ---       ?C_START
      00FF0000H   PUBLIC    CODE     ---       ?C?STARTUP
      00FF0000H   PUBLIC    CODE     ---       ?C_STARTUP

      ---         MODULE    ---      ---       ?C?INITEDATA
      00FF15A2H   PUBLIC    CODE     ---       ?C?INITEDATA

      ---         MODULE    ---      ---       ?C?LMUL
      00FF0A87H   PUBLIC    CODE     ---       ?C?LMUL

      ---         MODULE    ---      ---       STRLEN
      00FF1962H   PUBLIC    CODE     ---       strlen?_

      ---         MODULE    ---      ---       memcpy
      00FF17D0H   PUBLIC    CODE     ---       memcpy?_

      ---         MODULE    ---      ---       ?C?INITEDATA_END
      00FF1A5AH   PUBLIC    HCONST   WORD      ?C?INITEDATA_END



*** WARNING L57: UNCALLED FUNCTION, IGNORED FOR OVERLAY PROCESS
    NAME:    DIS_LED_GPIO_config/LED_drive

*** WARNING L57: UNCALLED FUNCTION, IGNORED FOR OVERLAY PROCESS
    NAME:    DIS_LED_ALL_on/LED_drive

*** WARNING L57: UNCALLED FUNCTION, IGNORED FOR OVERLAY PROCESS
    NAME:    DIS_LED_Disable/LED_drive

*** WARNING L57: UNCALLED FUNCTION, IGNORED FOR OVERLAY PROCESS
    NAME:    DIS_LED_Enable/LED_drive
L251 LINKER/LOCATER V4.66.93.0                                                        05/20/2026  15:29:22  PAGE 36



*** WARNING L16: UNCALLED SEGMENT, IGNORED FOR OVERLAY PROCESS
    NAME:    OLED12864_SetHeader/util

*** WARNING L16: UNCALLED SEGMENT, IGNORED FOR OVERLAY PROCESS
    NAME:    LCD12864_SetBuffer/util

*** WARNING L16: UNCALLED SEGMENT, IGNORED FOR OVERLAY PROCESS
    NAME:    VSPRINTF/VSPRINTF

*** WARNING L16: UNCALLED SEGMENT, IGNORED FOR OVERLAY PROCESS
    NAME:    OUT/VSPRINTF

*** WARNING L16: UNCALLED SEGMENT, IGNORED FOR OVERLAY PROCESS
    NAME:    PUTCH/VSPRINTF

Program Size: data=8.3 edata+hdata=481 xdata=192 const=228 code=6559
L251 RUN COMPLETE.  9 WARNING(S),  0 ERROR(S)
